(lp0
(S'SCENE'
p1
S'NN'
p2
tp3
a(S'I'
p4
S'PRP'
p5
tp6
a(S'It'
p7
g5
tp8
a(S'is'
p9
S'VBZ'
p10
tp11
a(S'six'
p12
S'CD'
p13
tp14
a(S"o'clock"
p15
S'JJ'
p16
tp17
a(S'of'
p18
S'IN'
p19
tp20
a(S'a'
p21
S'DT'
p22
tp23
a(S'November'
p24
S'NNP'
p25
tp26
a(S'evening'
p27
g2
tp28
a(S','
p29
g29
tp30
a(S'in'
p31
g19
tp32
a(S'KEITH'
p33
g25
tp34
a(S'DARRANT'
p35
g25
tp36
a(S"'S"
p37
S'POS'
p38
tp39
a(S'study.'
p40
g25
tp41
a(S'A'
p42
g25
tp43
a(S'large'
p44
g16
tp45
a(g29
g29
tp46
a(S'dark-curtained'
p47
g16
tp48
a(S'room'
p49
g2
tp50
a(S'where'
p51
S'WRB'
p52
tp53
a(S'the'
p54
g22
tp55
a(S'light'
p56
g16
tp57
a(S'from'
p58
g19
tp59
a(g21
g22
tp60
a(S'single'
p61
g16
tp62
a(S'reading-lamp'
p63
g2
tp64
a(S'falling'
p65
S'VBG'
p66
tp67
a(S'on'
p68
g19
tp69
a(S'Turkey'
p70
g25
tp71
a(S'carpet'
p72
g2
tp73
a(g29
g29
tp74
a(S'on'
p75
g19
tp76
a(S'books'
p77
S'NNS'
p78
tp79
a(S'beside'
p80
S'VBP'
p81
tp82
a(g21
g22
tp83
a(S'large'
p84
g16
tp85
a(S'armchair'
p86
g2
tp87
a(g29
g29
tp88
a(S'on'
p89
g19
tp90
a(S'the'
p91
g22
tp92
a(S'deep'
p93
g2
tp94
a(S'blue-and-gold'
p95
g16
tp96
a(S'coffee'
p97
g2
tp98
a(S'service'
p99
g2
tp100
a(g29
g29
tp101
a(S'makes'
p102
g10
tp103
a(g21
g22
tp104
a(S'sort'
p105
g2
tp106
a(S'of'
p107
g19
tp108
a(S'oasis'
p109
g2
tp110
a(S'before'
p111
g19
tp112
a(g21
g22
tp113
a(S'log'
p114
g2
tp115
a(S'fire.'
p116
g25
tp117
a(S'In'
p118
g25
tp119
a(S'red'
p120
S'VBD'
p121
tp122
a(S'Turkish'
p123
g25
tp124
a(S'slippers'
p125
g78
tp126
a(S'and'
p127
S'CC'
p128
tp129
a(S'an'
p130
g22
tp131
a(S'old'
p132
g16
tp133
a(S'brown'
p134
g2
tp135
a(S'velvet'
p136
g2
tp137
a(S'coat'
p138
g2
tp139
a(g29
g29
tp140
a(S'KEITH'
p141
g25
tp142
a(S'DARRANT'
p143
g25
tp144
a(S'sits'
p145
g10
tp146
a(S'asleep.'
p147
g25
tp148
a(S'He'
p149
g25
tp150
a(S'has'
p151
g10
tp152
a(g21
g22
tp153
a(S'dark'
p154
g16
tp155
a(g29
g29
tp156
a(S'clean-cut'
p157
g16
tp158
a(g29
g29
tp159
a(S'clean-shaven'
p160
g16
tp161
a(S'face'
p162
g2
tp163
a(g29
g29
tp164
a(S'dark'
p165
g2
tp166
a(S'grizzling'
p167
g66
tp168
a(S'hair'
p169
g2
tp170
a(g29
g29
tp171
a(S'dark'
p172
g2
tp173
a(S'twisting'
p174
g66
tp175
a(S'eyebrows'
p176
g78
tp177
a(S'.'
p178
g178
tp179
a(S'['
p180
S':'
p181
tp182
a(S'The'
p183
g22
tp184
a(S'curtained'
p185
S'VBN'
p186
tp187
a(S'door'
p188
g2
tp189
a(S'away'
p190
S'RB'
p191
tp192
a(S'out'
p193
g19
tp194
a(S'in'
p195
g19
tp196
a(S'the'
p197
g22
tp198
a(S'dim'
p199
g2
tp200
a(S'part'
p201
g2
tp202
a(S'of'
p203
g19
tp204
a(S'the'
p205
g22
tp206
a(S'room'
p207
g2
tp208
a(S'behind'
p209
g19
tp210
a(S'him'
p211
g5
tp212
a(S'is'
p213
g10
tp214
a(S'opened'
p215
g186
tp216
a(S'so'
p217
g191
tp218
a(S'softly'
p219
g191
tp220
a(S'that'
p221
g19
tp222
a(S'he'
p223
g5
tp224
a(S'does'
p225
g10
tp226
a(S'not'
p227
g191
tp228
a(S'wake.'
p229
g25
tp230
a(S'LARRY'
p231
g25
tp232
a(S'DARRANT'
p233
g25
tp234
a(S'enters'
p235
g10
tp236
a(S'and'
p237
g128
tp238
a(S'stands'
p239
g78
tp240
a(S'half'
p241
g22
tp242
a(S'lost'
p243
g2
tp244
a(S'in'
p245
g19
tp246
a(S'the'
p247
g22
tp248
a(S'curtain'
p249
g2
tp250
a(S'over'
p251
g19
tp252
a(S'the'
p253
g22
tp254
a(S'door.'
p255
g25
tp256
a(g42
g22
tp257
a(S'thin'
p258
g16
tp259
a(S'figure'
p260
g2
tp261
a(g29
g29
tp262
a(S'with'
p263
g19
tp264
a(g21
g22
tp265
a(S'worn'
p266
g2
tp267
a(g29
g29
tp268
a(S'high'
p269
g16
tp270
a(S'cheek-boned'
p271
g16
tp272
a(S'face'
p273
g2
tp274
a(g29
g29
tp275
a(S'deep-sunk'
p276
g16
tp277
a(S'blue'
p278
g2
tp279
a(S'eyes'
p280
g78
tp281
a(S'and'
p282
g128
tp283
a(S'wavy'
p284
g16
tp285
a(S'hair'
p286
g2
tp287
a(S'all'
p288
g22
tp289
a(S'ruffled--a'
p290
g25
tp291
a(S'face'
p292
g2
tp293
a(S'which'
p294
S'WDT'
p295
tp296
a(S'still'
p297
g191
tp298
a(S'has'
p299
g10
tp300
a(g21
g22
tp301
a(S'certain'
p302
g16
tp303
a(S'beauty.'
p304
g25
tp305
a(S'He'
p306
g25
tp307
a(S'moves'
p308
g10
tp309
a(S'inwards'
p310
g78
tp311
a(S'along'
p312
g19
tp313
a(S'the'
p314
g22
tp315
a(S'wall'
p316
g2
tp317
a(g29
g29
tp318
a(S'stands'
p319
g10
tp320
a(S'still'
p321
g191
tp322
a(S'again'
p323
g191
tp324
a(S'and'
p325
g128
tp326
a(S'utters'
p327
g78
tp328
a(g21
g22
tp329
a(S'gasping'
p330
g66
tp331
a(S'sigh.'
p332
g25
tp333
a(S'KEITH'
p334
g25
tp335
a(S'stirs'
p336
g78
tp337
a(S'in'
p338
g19
tp339
a(S'his'
p340
S'PRP$'
p341
tp342
a(S'chair.'
p343
g25
tp344
a(S']'
p345
g25
tp346
a(S'KEITH'
p347
g25
tp348
a(g178
g178
tp349
a(S'SCENE'
p350
g25
tp351
a(S'II'
p352
g25
tp353
a(S'At'
p354
g25
tp355
a(S'out'
p356
g19
tp357
a(S'eleven'
p358
g191
tp359
a(S"o'clock"
p360
g16
tp361
a(S'the'
p362
g22
tp363
a(S'following'
p364
g66
tp365
a(S'night'
p366
g2
tp367
a(S'an'
p368
g22
tp369
a(S'WANDA'
p370
g25
tp371
a(S"'S"
p372
g38
tp373
a(S'room'
p374
g2
tp375
a(S'on'
p376
g19
tp377
a(S'the'
p378
g22
tp379
a(S'ground'
p380
g2
tp381
a(S'floor'
p382
g2
tp383
a(S'in'
p384
g19
tp385
a(S'Soho.'
p386
g25
tp387
a(S'In'
p388
g25
tp389
a(S'the'
p390
g22
tp391
a(S'light'
p392
g2
tp393
a(S'from'
p394
g19
tp395
a(S'one'
p396
g13
tp397
a(S'close-shaded'
p398
g16
tp399
a(S'electric'
p400
g16
tp401
a(S'bulb'
p402
g2
tp403
a(S'the'
p404
g22
tp405
a(S'room'
p406
g2
tp407
a(S'is'
p408
g10
tp409
a(S'but'
p410
g128
tp411
a(S'dimly'
p412
g191
tp413
a(S'visible.'
p414
g25
tp415
a(g42
g22
tp416
a(S'dying'
p417
g2
tp418
a(S'fire'
p419
g2
tp420
a(S'burns'
p421
g78
tp422
a(S'on'
p423
g19
tp424
a(S'the'
p425
g22
tp426
a(S'left.'
p427
g25
tp428
a(g42
g22
tp429
a(S'curtained'
p430
g16
tp431
a(S'window'
p432
g2
tp433
a(S'in'
p434
g19
tp435
a(S'the'
p436
g22
tp437
a(S'centre'
p438
g2
tp439
a(S'of'
p440
g19
tp441
a(S'the'
p442
g22
tp443
a(S'back'
p444
g2
tp445
a(S'wall'
p446
g2
tp447
a(g178
g178
tp448
a(g42
g22
tp449
a(S'door'
p450
g2
tp451
a(S'on'
p452
g19
tp453
a(S'the'
p454
g22
tp455
a(S'right.'
p456
g25
tp457
a(S'The'
p458
g25
tp459
a(S'furniture'
p460
g2
tp461
a(S'is'
p462
g10
tp463
a(S'plush-covered'
p464
g16
tp465
a(S'and'
p466
g128
tp467
a(S'commonplace'
p468
g2
tp469
a(g29
g29
tp470
a(S'with'
p471
g19
tp472
a(g21
g22
tp473
a(S'kind'
p474
g2
tp475
a(S'of'
p476
g19
tp477
a(S'shabby'
p478
g16
tp479
a(S'smartness.'
p480
g25
tp481
a(g42
g22
tp482
a(S'couch'
p483
g16
tp484
a(g29
g29
tp485
a(S'without'
p486
g19
tp487
a(S'back'
p488
g191
tp489
a(S'or'
p490
g128
tp491
a(S'arms'
p492
g78
tp493
a(g29
g29
tp494
a(S'stands'
p495
g78
tp496
a(S'aslant'
p497
g81
tp498
a(g29
g29
tp499
a(S'between'
p500
g19
tp501
a(S'window'
p502
g2
tp503
a(S'and'
p504
g128
tp505
a(S'fire'
p506
g2
tp507
a(g178
g178
tp508
a(g180
g2
tp509
a(S'On'
p510
g19
tp511
a(S'this'
p512
g22
tp513
a(S'WANDA'
p514
g25
tp515
a(S'is'
p516
g10
tp517
a(S'sitting'
p518
g66
tp519
a(g29
g29
tp520
a(S'her'
p521
g341
tp522
a(S'knees'
p523
g78
tp524
a(S'drawn'
p525
g186
tp526
a(S'up'
p527
S'RP'
p528
tp529
a(S'under'
p530
g19
tp531
a(S'her'
p532
g341
tp533
a(g29
g29
tp534
a(S'staring'
p535
g66
tp536
a(S'at'
p537
g19
tp538
a(S'the'
p539
g22
tp540
a(S'embers.'
p541
g25
tp542
a(S'She'
p543
g25
tp544
a(S'has'
p545
g10
tp546
a(S'on'
p547
g19
tp548
a(S'only'
p549
g191
tp550
a(S'her'
p551
g341
tp552
a(S'nightgown'
p553
g2
tp554
a(S'and'
p555
g128
tp556
a(g21
g22
tp557
a(S'wrapper'
p558
g2
tp559
a(S'over'
p560
g19
tp561
a(S'it'
p562
g5
tp563
a(S';'
p564
g181
tp565
a(S'her'
p566
g341
tp567
a(S'bare'
p568
g2
tp569
a(S'feet'
p570
g2
tp571
a(S'are'
p572
g81
tp573
a(S'thrust'
p574
g191
tp575
a(S'into'
p576
g19
tp577
a(S'slippers.'
p578
g25
tp579
a(S'Her'
p580
g25
tp581
a(S'hands'
p582
g78
tp583
a(S'are'
p584
g81
tp585
a(S'crossed'
p586
g186
tp587
a(S'and'
p588
g128
tp589
a(S'pressed'
p590
g186
tp591
a(S'over'
p592
g19
tp593
a(S'her'
p594
g341
tp595
a(S'breast.'
p596
g25
tp597
a(S'She'
p598
g25
tp599
a(S'starts'
p600
g10
tp601
a(S'and'
p602
g128
tp603
a(S'looks'
p604
g78
tp605
a(S'up'
p606
g528
tp607
a(g29
g29
tp608
a(S'listening.'
p609
g25
tp610
a(S'Her'
p611
g25
tp612
a(S'eyes'
p613
g10
tp614
a(S'are'
p615
g81
tp616
a(S'candid'
p617
g186
tp618
a(S'and'
p619
g128
tp620
a(S'startled'
p621
g186
tp622
a(g29
g29
tp623
a(S'her'
p624
g341
tp625
a(S'face'
p626
g2
tp627
a(S'alabaster'
p628
g2
tp629
a(S'pale'
p630
g2
tp631
a(g29
g29
tp632
a(S'and'
p633
g128
tp634
a(S'its'
p635
g341
tp636
a(S'pale'
p637
g2
tp638
a(S'brown'
p639
g2
tp640
a(S'hair'
p641
g2
tp642
a(g29
g29
tp643
a(S'short'
p644
g16
tp645
a(S'and'
p646
g128
tp647
a(S'square-cut'
p648
g16
tp649
a(g29
g29
tp650
a(S'curls'
p651
g78
tp652
a(S'towards'
p653
g78
tp654
a(S'her'
p655
g5
tp656
a(S'bare'
p657
g81
tp658
a(S'neck.'
p659
g25
tp660
a(S'The'
p661
g25
tp662
a(S'startled'
p663
g121
tp664
a(S'dark'
p665
g2
tp666
a(S'eyes'
p667
g78
tp668
a(S'and'
p669
g128
tp670
a(S'the'
p671
g22
tp672
a(S'faint'
p673
g2
tp674
a(S'rose'
p675
g121
tp676
a(S'of'
p677
g19
tp678
a(S'her'
p679
g341
tp680
a(S'lips'
p681
g78
tp682
a(S'are'
p683
g81
tp684
a(S'like'
p685
g19
tp686
a(S'colour-staining'
p687
g16
tp688
a(S'on'
p689
g19
tp690
a(g21
g22
tp691
a(S'white'
p692
g16
tp693
a(S'mask.'
p694
g25
tp695
a(g345
g25
tp696
a(g180
g25
tp697
a(S'Footsteps'
p698
g25
tp699
a(S'as'
p700
g19
tp701
a(S'of'
p702
g19
tp703
a(g21
g22
tp704
a(S'policeman'
p705
g2
tp706
a(g29
g29
tp707
a(S'very'
p708
g191
tp709
a(S'measured'
p710
g186
tp711
a(g29
g29
tp712
a(S'pass'
p713
g2
tp714
a(S'on'
p715
g19
tp716
a(S'the'
p717
g22
tp718
a(S'pavement'
p719
g2
tp720
a(S'outside'
p721
g19
tp722
a(g29
g29
tp723
a(S'and'
p724
g128
tp725
a(S'die'
p726
S'VB'
p727
tp728
a(S'away.'
p729
g25
tp730
a(S'She'
p731
g25
tp732
a(S'gets'
p733
g10
tp734
a(S'up'
p735
g528
tp736
a(S'and'
p737
g128
tp738
a(S'steals'
p739
g78
tp740
a(S'to'
p741
S'TO'
p742
tp743
a(S'the'
p744
g22
tp745
a(S'window'
p746
g2
tp747
a(g29
g29
tp748
a(S'draws'
p749
g10
tp750
a(S'one'
p751
g13
tp752
a(S'curtain'
p753
g2
tp754
a(S'aside'
p755
g2
tp756
a(S'so'
p757
g191
tp758
a(S'that'
p759
g19
tp760
a(g21
g22
tp761
a(S'chink'
p762
g2
tp763
a(S'of'
p764
g19
tp765
a(S'the'
p766
g22
tp767
a(S'night'
p768
g2
tp769
a(S'is'
p770
g10
tp771
a(S'seen.'
p772
g25
tp773
a(S'She'
p774
g25
tp775
a(S'opens'
p776
g10
tp777
a(S'the'
p778
g22
tp779
a(S'curtain'
p780
g2
tp781
a(S'wider'
p782
g2
tp783
a(g29
g29
tp784
a(S'till'
p785
g2
tp786
a(S'the'
p787
g22
tp788
a(S'shape'
p789
g2
tp790
a(S'of'
p791
g19
tp792
a(g21
g22
tp793
a(S'bare'
p794
g2
tp795
a(g29
g29
tp796
a(S'witch-like'
p797
g16
tp798
a(S'tree'
p799
g2
tp800
a(S'becomes'
p801
g10
tp802
a(S'visible'
p803
g16
tp804
a(S'in'
p805
g19
tp806
a(S'the'
p807
g22
tp808
a(S'open'
p809
g16
tp810
a(S'space'
p811
g2
tp812
a(S'of'
p813
g19
tp814
a(S'the'
p815
g22
tp816
a(S'little'
p817
g16
tp818
a(S'Square'
p819
g25
tp820
a(S'on'
p821
g19
tp822
a(S'the'
p823
g22
tp824
a(S'far'
p825
g2
tp826
a(S'side'
p827
g2
tp828
a(S'of'
p829
g19
tp830
a(S'the'
p831
g22
tp832
a(S'road.'
p833
g25
tp834
a(S'The'
p835
g25
tp836
a(S'footsteps'
p837
g78
tp838
a(S'are'
p839
g81
tp840
a(S'heard'
p841
g186
tp842
a(S'once'
p843
g191
tp844
a(S'more'
p845
S'RBR'
p846
tp847
a(S'coming'
p848
g66
tp849
a(S'nearer.'
p850
g25
tp851
a(S'WANDA'
p852
g25
tp853
a(S'closes'
p854
g10
tp855
a(S'the'
p856
g22
tp857
a(S'curtains'
p858
g78
tp859
a(S'and'
p860
g128
tp861
a(S'cranes'
p862
g78
tp863
a(S'back.'
p864
g25
tp865
a(S'They'
p866
g25
tp867
a(S'pass'
p868
g2
tp869
a(S'and'
p870
g128
tp871
a(S'die'
p872
g727
tp873
a(S'again.'
p874
g25
tp875
a(S'She'
p876
g25
tp877
a(S'moves'
p878
g10
tp879
a(S'away'
p880
g191
tp881
a(S'and'
p882
g128
tp883
a(S'looking'
p884
g66
tp885
a(S'down'
p886
g19
tp887
a(S'at'
p888
g19
tp889
a(S'the'
p890
g22
tp891
a(S'floor'
p892
g2
tp893
a(S'between'
p894
g19
tp895
a(S'door'
p896
g2
tp897
a(S'and'
p898
g128
tp899
a(S'couch'
p900
g16
tp901
a(g29
g29
tp902
a(S'as'
p903
g19
tp904
a(S'though'
p905
g19
tp906
a(S'seeing'
p907
g2
tp908
a(S'something'
p909
g2
tp910
a(S'there'
p911
g191
tp912
a(g564
g181
tp913
a(S'shudders'
p914
g78
tp915
a(g564
g181
tp916
a(S'covers'
p917
g78
tp918
a(S'her'
p919
g341
tp920
a(S'eyes'
p921
g78
tp922
a(g564
g181
tp923
a(S'goes'
p924
g10
tp925
a(S'back'
p926
g191
tp927
a(S'to'
p928
g742
tp929
a(S'the'
p930
g22
tp931
a(S'couch'
p932
g16
tp933
a(S'and'
p934
g128
tp935
a(S'down'
p936
g19
tp937
a(S'again'
p938
g191
tp939
a(S'just'
p940
g191
tp941
a(S'as'
p942
g19
tp943
a(S'before'
p944
g19
tp945
a(g29
g29
tp946
a(S'to'
p947
g742
tp948
a(S'stare'
p949
g727
tp950
a(S'at'
p951
g19
tp952
a(S'the'
p953
g22
tp954
a(S'embers.'
p955
g25
tp956
a(S'Again'
p957
g25
tp958
a(S'she'
p959
g5
tp960
a(S'is'
p961
g10
tp962
a(S'startled'
p963
g186
tp964
a(S'by'
p965
g19
tp966
a(S'noise'
p967
g2
tp968
a(S'of'
p969
g19
tp970
a(S'the'
p971
g22
tp972
a(S'outer'
p973
g2
tp974
a(S'door'
p975
g2
tp976
a(S'being'
p977
g66
tp978
a(S'opened.'
p979
g25
tp980
a(S'She'
p981
g25
tp982
a(S'springs'
p983
g78
tp984
a(S'up'
p985
g19
tp986
a(g29
g29
tp987
a(S'runs'
p988
g10
tp989
a(S'and'
p990
g128
tp991
a(S'turns'
p992
g10
tp993
a(S'the'
p994
g22
tp995
a(S'light'
p996
g2
tp997
a(S'by'
p998
g19
tp999
a(g21
g22
tp1000
a(S'switch'
p1001
g2
tp1002
a(S'close'
p1003
g2
tp1004
a(S'to'
p1005
g742
tp1006
a(S'the'
p1007
g22
tp1008
a(S'door.'
p1009
g25
tp1010
a(S'By'
p1011
g25
tp1012
a(S'the'
p1013
g22
tp1014
a(S'glimmer'
p1015
g2
tp1016
a(S'of'
p1017
g19
tp1018
a(S'the'
p1019
g22
tp1020
a(S'fire'
p1021
g2
tp1022
a(S'she'
p1023
g5
tp1024
a(S'can'
p1025
S'MD'
p1026
tp1027
a(S'just'
p1028
g191
tp1029
a(S'be'
p1030
g727
tp1031
a(S'seen'
p1032
g186
tp1033
a(S'standing'
p1034
g2
tp1035
a(S'by'
p1036
g19
tp1037
a(S'the'
p1038
g22
tp1039
a(S'dark'
p1040
g16
tp1041
a(S'window-curtains'
p1042
g78
tp1043
a(g29
g29
tp1044
a(S'listening.'
p1045
g25
tp1046
a(S'There'
p1047
S'EX'
p1048
tp1049
a(S'comes'
p1050
g10
tp1051
a(S'the'
p1052
g22
tp1053
a(S'sound'
p1054
g2
tp1055
a(S'of'
p1056
g19
tp1057
a(S'subdued'
p1058
g186
tp1059
a(S'knocking'
p1060
g66
tp1061
a(S'on'
p1062
g19
tp1063
a(S'her'
p1064
g341
tp1065
a(S'door.'
p1066
g25
tp1067
a(S'She'
p1068
g25
tp1069
a(S'stands'
p1070
g10
tp1071
a(S'in'
p1072
g19
tp1073
a(S'breathless'
p1074
g2
tp1075
a(S'terror'
p1076
g2
tp1077
a(g178
g178
tp1078
a(S'The'
p1079
g22
tp1080
a(S'knocking'
p1081
g2
tp1082
a(S'is'
p1083
g10
tp1084
a(S'repeated.'
p1085
g25
tp1086
a(S'The'
p1087
g22
tp1088
a(S'sound'
p1089
g2
tp1090
a(S'of'
p1091
g19
tp1092
a(g21
g22
tp1093
a(S'latchkey'
p1094
g2
tp1095
a(S'in'
p1096
g19
tp1097
a(S'the'
p1098
g22
tp1099
a(S'door'
p1100
g2
tp1101
a(S'is'
p1102
g10
tp1103
a(S'heard.'
p1104
g25
tp1105
a(S'Her'
p1106
g25
tp1107
a(S'terror'
p1108
g2
tp1109
a(S'leaves'
p1110
g10
tp1111
a(S'her.'
p1112
g25
tp1113
a(S'The'
p1114
g25
tp1115
a(S'door'
p1116
g2
tp1117
a(S'opens'
p1118
g10
tp1119
a(g564
g181
tp1120
a(g21
g22
tp1121
a(S'man'
p1122
g2
tp1123
a(S'enters'
p1124
g10
tp1125
a(S'in'
p1126
g19
tp1127
a(g21
g22
tp1128
a(S'dark'
p1129
g16
tp1130
a(g29
g29
tp1131
a(S'fur'
p1132
g2
tp1133
a(S'overcoat.'
p1134
g25
tp1135
a(g345
g25
tp1136
a(S'WANDA'
p1137
g25
tp1138
a(g178
g178
tp1139
a(S'SCENE'
p1140
g25
tp1141
a(S'III'
p1142
g25
tp1143
a(g178
g178
tp1144
a(S'TWO'
p1145
g13
tp1146
a(S'MONTHS'
p1147
g78
tp1148
a(S'LATER'
p1149
g25
tp1150
a(S'WANDA'
p1151
g25
tp1152
a(S"'S"
p1153
g38
tp1154
a(S'room.'
p1155
g25
tp1156
a(S'Daylight'
p1157
g25
tp1158
a(S'is'
p1159
g10
tp1160
a(S'just'
p1161
g191
tp1162
a(S'beginning'
p1163
g66
tp1164
a(S'to'
p1165
g742
tp1166
a(S'fail'
p1167
g727
tp1168
a(S'of'
p1169
g19
tp1170
a(g21
g22
tp1171
a(S'January'
p1172
g25
tp1173
a(S'afternoon.'
p1174
g25
tp1175
a(S'The'
p1176
g25
tp1177
a(S'table'
p1178
g2
tp1179
a(S'is'
p1180
g10
tp1181
a(S'laid'
p1182
g186
tp1183
a(S'for'
p1184
g19
tp1185
a(S'supper'
p1186
g2
tp1187
a(g29
g29
tp1188
a(S'with'
p1189
g19
tp1190
a(S'decanters'
p1191
g78
tp1192
a(S'of'
p1193
g19
tp1194
a(S'wine'
p1195
g2
tp1196
a(g178
g178
tp1197
a(S'WANDA'
p1198
g25
tp1199
a(S'is'
p1200
g10
tp1201
a(S'standing'
p1202
g66
tp1203
a(S'at'
p1204
g19
tp1205
a(S'the'
p1206
g22
tp1207
a(S'window'
p1208
g2
tp1209
a(S'looking'
p1210
g66
tp1211
a(S'out'
p1212
g528
tp1213
a(S'at'
p1214
g19
tp1215
a(S'the'
p1216
g22
tp1217
a(S'wintry'
p1218
g2
tp1219
a(S'trees'
p1220
g78
tp1221
a(S'of'
p1222
g19
tp1223
a(S'the'
p1224
g22
tp1225
a(S'Square'
p1226
g25
tp1227
a(S'beyond'
p1228
g2
tp1229
a(S'the'
p1230
g22
tp1231
a(S'pavement.'
p1232
g25
tp1233
a(g42
g22
tp1234
a(S'newspaper'
p1235
g2
tp1236
a(S'Boy'
p1237
g25
tp1238
a(S"'s"
p1239
g38
tp1240
a(S'voice'
p1241
g2
tp1242
a(S'is'
p1243
g10
tp1244
a(S'heard'
p1245
g186
tp1246
a(S'coming'
p1247
g66
tp1248
a(S'nearer'
p1249
g2
tp1250
a(g178
g178
tp1251
a(S'VOICE'
p1252
g25
tp1253
a(g178
g178
tp1254
a(S'SCENES'
p1255
g25
tp1256
a(S'SCENE'
p1257
g25
tp1258
a(g4
g25
tp1259
a(S'Afternoon'
p1260
g25
tp1261
a(g29
g29
tp1262
a(S'on'
p1263
g19
tp1264
a(S'the'
p1265
g22
tp1266
a(S'departure'
p1267
g2
tp1268
a(S'platform'
p1269
g2
tp1270
a(S'of'
p1271
g19
tp1272
a(S'an'
p1273
g22
tp1274
a(S'Austrian'
p1275
g16
tp1276
a(S'railway'
p1277
g2
tp1278
a(S'station.'
p1279
g25
tp1280
a(S'At'
p1281
g25
tp1282
a(S'several'
p1283
g16
tp1284
a(S'little'
p1285
g16
tp1286
a(S'tables'
p1287
g78
tp1288
a(S'outside'
p1289
g19
tp1290
a(S'the'
p1291
g22
tp1292
a(S'buffet'
p1293
g2
tp1294
a(S'persons'
p1295
g78
tp1296
a(S'are'
p1297
g81
tp1298
a(S'taking'
p1299
g66
tp1300
a(S'refreshment'
p1301
g2
tp1302
a(g29
g29
tp1303
a(S'served'
p1304
g121
tp1305
a(S'by'
p1306
g19
tp1307
a(g21
g22
tp1308
a(S'pale'
p1309
g2
tp1310
a(S'young'
p1311
g2
tp1312
a(S'waiter.'
p1313
g25
tp1314
a(S'On'
p1315
g25
tp1316
a(g21
g22
tp1317
a(S'seat'
p1318
g2
tp1319
a(S'against'
p1320
g19
tp1321
a(S'the'
p1322
g22
tp1323
a(S'wall'
p1324
g2
tp1325
a(S'of'
p1326
g19
tp1327
a(S'the'
p1328
g22
tp1329
a(S'buffet'
p1330
g2
tp1331
a(g21
g22
tp1332
a(S'woman'
p1333
g2
tp1334
a(S'of'
p1335
g19
tp1336
a(S'lowly'
p1337
g191
tp1338
a(S'station'
p1339
g2
tp1340
a(S'is'
p1341
g10
tp1342
a(S'sitting'
p1343
g66
tp1344
a(S'beside'
p1345
g2
tp1346
a(S'two'
p1347
g13
tp1348
a(S'large'
p1349
g16
tp1350
a(S'bundles'
p1351
g78
tp1352
a(g29
g29
tp1353
a(S'on'
p1354
g19
tp1355
a(S'one'
p1356
g13
tp1357
a(S'of'
p1358
g19
tp1359
a(S'which'
p1360
g295
tp1361
a(S'she'
p1362
g5
tp1363
a(S'has'
p1364
g10
tp1365
a(S'placed'
p1366
g186
tp1367
a(S'her'
p1368
g341
tp1369
a(S'baby'
p1370
g2
tp1371
a(g29
g29
tp1372
a(S'swathed'
p1373
g121
tp1374
a(S'in'
p1375
g19
tp1376
a(g21
g22
tp1377
a(S'black'
p1378
g16
tp1379
a(S'shawl'
p1380
g2
tp1381
a(g178
g178
tp1382
a(S'WAITER'
p1383
g2
tp1384
a(g178
g178
tp1385
a(S'SCENE'
p1386
g25
tp1387
a(S'II'
p1388
g25
tp1389
a(g42
g22
tp1390
a(S'second-class'
p1391
g16
tp1392
a(S'compartment'
p1393
g2
tp1394
a(S'of'
p1395
g19
tp1396
a(g21
g22
tp1397
a(S'corridor'
p1398
g2
tp1399
a(S'carriage'
p1400
g2
tp1401
a(g29
g29
tp1402
a(S'in'
p1403
g19
tp1404
a(S'motion'
p1405
g2
tp1406
a(g178
g178
tp1407
a(S'In'
p1408
g25
tp1409
a(S'it'
p1410
g5
tp1411
a(S'are'
p1412
g81
tp1413
a(S'seated'
p1414
g186
tp1415
a(S'the'
p1416
g22
tp1417
a(S'ENGLISHMAN'
p1418
g25
tp1419
a(S'and'
p1420
g128
tp1421
a(S'his'
p1422
g341
tp1423
a(S'WIFE'
p1424
g25
tp1425
a(g29
g29
tp1426
a(S'opposite'
p1427
g16
tp1428
a(S'each'
p1429
g22
tp1430
a(S'other'
p1431
g16
tp1432
a(S'at'
p1433
g19
tp1434
a(S'the'
p1435
g22
tp1436
a(S'corridor'
p1437
g2
tp1438
a(S'end'
p1439
g2
tp1440
a(g29
g29
tp1441
a(S'she'
p1442
g5
tp1443
a(S'with'
p1444
g19
tp1445
a(S'her'
p1446
g341
tp1447
a(S'face'
p1448
g2
tp1449
a(S'to'
p1450
g742
tp1451
a(S'the'
p1452
g22
tp1453
a(S'engine'
p1454
g2
tp1455
a(g29
g29
tp1456
a(S'he'
p1457
g5
tp1458
a(S'with'
p1459
g19
tp1460
a(S'his'
p1461
g341
tp1462
a(S'back.'
p1463
g25
tp1464
a(S'Both'
p1465
g25
tp1466
a(S'are'
p1467
g81
tp1468
a(S'somewhat'
p1469
g191
tp1470
a(S'protected'
p1471
g186
tp1472
a(S'from'
p1473
g19
tp1474
a(S'the'
p1475
g22
tp1476
a(S'rest'
p1477
g2
tp1478
a(S'of'
p1479
g19
tp1480
a(S'the'
p1481
g22
tp1482
a(S'travellers'
p1483
g78
tp1484
a(S'by'
p1485
g19
tp1486
a(S'newspapers.'
p1487
g25
tp1488
a(S'Next'
p1489
g25
tp1490
a(S'to'
p1491
g742
tp1492
a(S'her'
p1493
g341
tp1494
a(S'sits'
p1495
g78
tp1496
a(S'the'
p1497
g22
tp1498
a(S'GERMAN'
p1499
g25
tp1500
a(g29
g29
tp1501
a(S'and'
p1502
g128
tp1503
a(S'opposite'
p1504
g16
tp1505
a(S'him'
p1506
g2
tp1507
a(S'sits'
p1508
g78
tp1509
a(S'the'
p1510
g22
tp1511
a(S'AMERICAN'
p1512
g25
tp1513
a(g564
g181
tp1514
a(S'next'
p1515
g16
tp1516
a(S'the'
p1517
g22
tp1518
a(S'AMERICAN'
p1519
g25
tp1520
a(S'in'
p1521
g19
tp1522
a(S'one'
p1523
g13
tp1524
a(S'window'
p1525
g2
tp1526
a(S'corner'
p1527
g2
tp1528
a(S'is'
p1529
g10
tp1530
a(S'seated'
p1531
g186
tp1532
a(S'the'
p1533
g22
tp1534
a(S'DUTCH'
p1535
g25
tp1536
a(S'YOUTH'
p1537
g25
tp1538
a(g564
g181
tp1539
a(S'the'
p1540
g22
tp1541
a(S'other'
p1542
g16
tp1543
a(S'window'
p1544
g2
tp1545
a(S'corner'
p1546
g2
tp1547
a(S'is'
p1548
g10
tp1549
a(S'taken'
p1550
g186
tp1551
a(S'by'
p1552
g19
tp1553
a(S'the'
p1554
g22
tp1555
a(S'GERMAN'
p1556
g25
tp1557
a(S"'S"
p1558
g38
tp1559
a(S'bag.'
p1560
g25
tp1561
a(S'The'
p1562
g25
tp1563
a(S'silence'
p1564
g2
tp1565
a(S'is'
p1566
g10
tp1567
a(S'only'
p1568
g191
tp1569
a(S'broken'
p1570
g186
tp1571
a(S'by'
p1572
g19
tp1573
a(S'the'
p1574
g22
tp1575
a(S'slight'
p1576
g2
tp1577
a(S'rushing'
p1578
g66
tp1579
a(S'noise'
p1580
g2
tp1581
a(S'of'
p1582
g19
tp1583
a(S'the'
p1584
g22
tp1585
a(S'train'
p1586
g2
tp1587
a(S"'s"
p1588
g38
tp1589
a(S'progression'
p1590
g2
tp1591
a(S'and'
p1592
g128
tp1593
a(S'the'
p1594
g22
tp1595
a(S'crackling'
p1596
g2
tp1597
a(S'of'
p1598
g19
tp1599
a(S'the'
p1600
g22
tp1601
a(S'English'
p1602
g25
tp1603
a(S'newspapers'
p1604
g78
tp1605
a(g178
g178
tp1606
a(S'AMERICAN'
p1607
g25
tp1608
a(g178
g178
tp1609
a(S'SCENE'
p1610
g25
tp1611
a(S'III'
p1612
g25
tp1613
a(S'An'
p1614
g25
tp1615
a(S'arrival'
p1616
g2
tp1617
a(S'platform.'
p1618
g25
tp1619
a(S'The'
p1620
g25
tp1621
a(S'LITTLE'
p1622
g25
tp1623
a(S'MAN'
p1624
g25
tp1625
a(g29
g29
tp1626
a(S'with'
p1627
g19
tp1628
a(S'the'
p1629
g22
tp1630
a(S'BABY'
p1631
g25
tp1632
a(S'and'
p1633
g128
tp1634
a(S'the'
p1635
g22
tp1636
a(S'bundle'
p1637
g2
tp1638
a(g29
g29
tp1639
a(S'is'
p1640
g10
tp1641
a(S'standing'
p1642
g66
tp1643
a(S'disconsolate'
p1644
g2
tp1645
a(g29
g29
tp1646
a(S'while'
p1647
g19
tp1648
a(S'travellers'
p1649
g78
tp1650
a(S'pass'
p1651
g81
tp1652
a(S'and'
p1653
g128
tp1654
a(S'luggage'
p1655
g2
tp1656
a(S'is'
p1657
g10
tp1658
a(S'being'
p1659
g66
tp1660
a(S'carried'
p1661
g186
tp1662
a(S'by.'
p1663
g25
tp1664
a(g42
g25
tp1665
a(S'STATION'
p1666
g25
tp1667
a(S'OFFICIAL'
p1668
g25
tp1669
a(g29
g29
tp1670
a(S'accompanied'
p1671
g121
tp1672
a(S'by'
p1673
g19
tp1674
a(g21
g22
tp1675
a(S'POLICEMAN'
p1676
g25
tp1677
a(g29
g29
tp1678
a(S'appears'
p1679
g10
tp1680
a(S'from'
p1681
g19
tp1682
a(g21
g22
tp1683
a(S'doorway'
p1684
g2
tp1685
a(g29
g29
tp1686
a(S'behind'
p1687
g19
tp1688
a(S'him'
p1689
g5
tp1690
a(g178
g178
tp1691
a(S'OFFICIAL'
p1692
g25
tp1693
a(g178
g178
tp1694
a(S'SCENE'
p1695
g25
tp1696
a(g42
g22
tp1697
a(S'Girl'
p1698
g25
tp1699
a(g29
g29
tp1700
a(S'sits'
p1701
g10
tp1702
a(S'crouched'
p1703
g186
tp1704
a(S'over'
p1705
g19
tp1706
a(S'her'
p1707
g341
tp1708
a(S'knees'
p1709
g78
tp1710
a(S'on'
p1711
g19
tp1712
a(g21
g22
tp1713
a(S'stile'
p1714
g2
tp1715
a(S'close'
p1716
g2
tp1717
a(S'to'
p1718
g742
tp1719
a(g21
g22
tp1720
a(S'river.'
p1721
g25
tp1722
a(g42
g25
tp1723
a(S'MAN'
p1724
g25
tp1725
a(S'with'
p1726
g19
tp1727
a(g21
g22
tp1728
a(S'silver'
p1729
g2
tp1730
a(S'badge'
p1731
g2
tp1732
a(S'stands'
p1733
g10
tp1734
a(S'beside'
p1735
g2
tp1736
a(S'her'
p1737
g341
tp1738
a(g29
g29
tp1739
a(S'clutching'
p1740
g66
tp1741
a(S'the'
p1742
g22
tp1743
a(S'worn'
p1744
g2
tp1745
a(S'top'
p1746
g2
tp1747
a(S'plank.'
p1748
g25
tp1749
a(S'THE'
p1750
g25
tp1751
a(S'GIRL'
p1752
g25
tp1753
a(S"'S"
p1754
g38
tp1755
a(S'level'
p1756
g2
tp1757
a(S'brows'
p1758
g10
tp1759
a(S'are'
p1760
g81
tp1761
a(S'drawn'
p1762
g186
tp1763
a(S'together'
p1764
g191
tp1765
a(g564
g181
tp1766
a(S'her'
p1767
g341
tp1768
a(S'eyes'
p1769
g78
tp1770
a(S'see'
p1771
g81
tp1772
a(S'her'
p1773
g5
tp1774
a(S'memories.'
p1775
g25
tp1776
a(S'THE'
p1777
g25
tp1778
a(S'MAN'
p1779
g25
tp1780
a(S"'s"
p1781
g38
tp1782
a(S'eyes'
p1783
g78
tp1784
a(S'see'
p1785
g81
tp1786
a(S'THE'
p1787
g22
tp1788
a(S'GIRL'
p1789
g25
tp1790
a(g564
g181
tp1791
a(S'he'
p1792
g5
tp1793
a(S'has'
p1794
g10
tp1795
a(g21
g22
tp1796
a(S'dark'
p1797
g16
tp1798
a(g29
g29
tp1799
a(S'twisted'
p1800
g186
tp1801
a(S'face.'
p1802
g25
tp1803
a(S'The'
p1804
g25
tp1805
a(S'bright'
p1806
g2
tp1807
a(S'sun'
p1808
g2
tp1809
a(S'shines'
p1810
g78
tp1811
a(g564
g181
tp1812
a(S'the'
p1813
g22
tp1814
a(S'quiet'
p1815
g16
tp1816
a(S'river'
p1817
g2
tp1818
a(S'flows'
p1819
g10
tp1820
a(g564
g181
tp1821
a(S'the'
p1822
g22
tp1823
a(S'Cuckoo'
p1824
g25
tp1825
a(S'is'
p1826
g10
tp1827
a(S'calling'
p1828
g66
tp1829
a(g564
g181
tp1830
a(S'the'
p1831
g22
tp1832
a(S'mayflower'
p1833
g2
tp1834
a(S'is'
p1835
g10
tp1836
a(S'in'
p1837
g19
tp1838
a(S'bloom'
p1839
g2
tp1840
a(S'along'
p1841
g19
tp1842
a(S'the'
p1843
g22
tp1844
a(S'hedge'
p1845
g2
tp1846
a(S'that'
p1847
g19
tp1848
a(S'ends'
p1849
g78
tp1850
a(S'in'
p1851
g19
tp1852
a(S'the'
p1853
g22
tp1854
a(S'stile'
p1855
g2
tp1856
a(S'on'
p1857
g19
tp1858
a(S'the'
p1859
g22
tp1860
a(S'towing-path'
p1861
g16
tp1862
a(g178
g178
tp1863
a(S'VANE'
p1864
g25
tp1865
a(g178
g178
tp1866
a(S'An'
p1867
g22
tp1868
a(S'empty'
p1869
g2
tp1870
a(S'room.'
p1871
g25
tp1872
a(S'The'
p1873
g25
tp1874
a(S'curtains'
p1875
g78
tp1876
a(S'drawn'
p1877
g186
tp1878
a(S'and'
p1879
g128
tp1880
a(S'gas'
p1881
g2
tp1882
a(S'turned'
p1883
g121
tp1884
a(S'low.'
p1885
g25
tp1886
a(S'The'
p1887
g25
tp1888
a(S'furniture'
p1889
g2
tp1890
a(S'and'
p1891
g128
tp1892
a(S'walls'
p1893
g78
tp1894
a(S'give'
p1895
g81
tp1896
a(g21
g22
tp1897
a(S'colour-impression'
p1898
g2
tp1899
a(S'as'
p1900
g19
tp1901
a(S'of'
p1902
g19
tp1903
a(S'greens'
p1904
g78
tp1905
a(S'and'
p1906
g128
tp1907
a(S'beetroot.'
p1908
g25
tp1909
a(S'There'
p1910
g25
tp1911
a(S'is'
p1912
g10
tp1913
a(g21
g22
tp1914
a(S'prevalence'
p1915
g2
tp1916
a(S'of'
p1917
g19
tp1918
a(S'plush.'
p1919
g25
tp1920
a(g42
g22
tp1921
a(S'fireplace'
p1922
g2
tp1923
a(S'on'
p1924
g19
tp1925
a(S'the'
p1926
g22
tp1927
a(S'Left'
p1928
g25
tp1929
a(g29
g29
tp1930
a(g21
g22
tp1931
a(S'sofa'
p1932
g2
tp1933
a(g29
g29
tp1934
a(g21
g22
tp1935
a(S'small'
p1936
g16
tp1937
a(S'table'
p1938
g16
tp1939
a(g564
g181
tp1940
a(S'the'
p1941
g22
tp1942
a(S'curtained'
p1943
g186
tp1944
a(S'window'
p1945
g2
tp1946
a(S'is'
p1947
g10
tp1948
a(S'at'
p1949
g19
tp1950
a(S'the'
p1951
g22
tp1952
a(S'back.'
p1953
g25
tp1954
a(S'On'
p1955
g25
tp1956
a(S'the'
p1957
g22
tp1958
a(S'table'
p1959
g2
tp1960
a(g29
g29
tp1961
a(S'in'
p1962
g19
tp1963
a(g21
g22
tp1964
a(S'common'
p1965
g16
tp1966
a(S'pot'
p1967
g2
tp1968
a(g29
g29
tp1969
a(S'stands'
p1970
g10
tp1971
a(g21
g22
tp1972
a(S'little'
p1973
g191
tp1974
a(S'plant'
p1975
g2
tp1976
a(S'of'
p1977
g19
tp1978
a(S'maidenhair'
p1979
g2
tp1980
a(S'fern'
p1981
g2
tp1982
a(g29
g29
tp1983
a(S'fresh'
p1984
g16
tp1985
a(S'and'
p1986
g128
tp1987
a(S'green'
p1988
g16
tp1989
a(g178
g178
tp1990
a(S'Enter'
p1991
g25
tp1992
a(S'from'
p1993
g19
tp1994
a(S'the'
p1995
g22
tp1996
a(S'door'
p1997
g2
tp1998
a(S'on'
p1999
g19
tp2000
a(S'the'
p2001
g22
tp2002
a(S'Right'
p2003
g25
tp2004
a(g29
g29
tp2005
a(g21
g22
tp2006
a(S'GIRL'
p2007
g25
tp2008
a(S'and'
p2009
g128
tp2010
a(g21
g22
tp2011
a(S'YOUNG'
p2012
g25
tp2013
a(S'OFFICER'
p2014
g25
tp2015
a(S'in'
p2016
g19
tp2017
a(S'khaki.'
p2018
g25
tp2019
a(S'The'
p2020
g25
tp2021
a(S'GIRL'
p2022
g25
tp2023
a(S'wears'
p2024
g10
tp2025
a(g21
g22
tp2026
a(S'discreet'
p2027
g2
tp2028
a(S'dark'
p2029
g2
tp2030
a(S'dress'
p2031
g2
tp2032
a(g29
g29
tp2033
a(S'hat'
p2034
g295
tp2035
a(g29
g29
tp2036
a(S'and'
p2037
g128
tp2038
a(S'veil'
p2039
g2
tp2040
a(g29
g29
tp2041
a(S'and'
p2042
g128
tp2043
a(S'stained'
p2044
g121
tp2045
a(S'yellow'
p2046
g16
tp2047
a(S'gloves.'
p2048
g25
tp2049
a(S'The'
p2050
g25
tp2051
a(S'YOUNG'
p2052
g25
tp2053
a(S'OFFICER'
p2054
g25
tp2055
a(S'is'
p2056
g10
tp2057
a(S'tall'
p2058
g16
tp2059
a(g29
g29
tp2060
a(S'with'
p2061
g19
tp2062
a(g21
g22
tp2063
a(S'fresh'
p2064
g16
tp2065
a(S'open'
p2066
g16
tp2067
a(S'face'
p2068
g2
tp2069
a(g29
g29
tp2070
a(S'and'
p2071
g128
tp2072
a(S'kindly'
p2073
g191
tp2074
a(S'eager'
p2075
g16
tp2076
a(S'blue'
p2077
g16
tp2078
a(S'eyes'
p2079
g78
tp2080
a(g564
g181
tp2081
a(S'he'
p2082
g5
tp2083
a(S'is'
p2084
g10
tp2085
a(g21
g22
tp2086
a(S'little'
p2087
g191
tp2088
a(S'lame.'
p2089
g25
tp2090
a(S'The'
p2091
g25
tp2092
a(S'GIRL'
p2093
g25
tp2094
a(g29
g29
tp2095
a(S'who'
p2096
S'WP'
p2097
tp2098
a(S'is'
p2099
g10
tp2100
a(S'evidently'
p2101
g191
tp2102
a(S'at'
p2103
g19
tp2104
a(S'home'
p2105
g2
tp2106
a(g29
g29
tp2107
a(S'moves'
p2108
g10
tp2109
a(S'towards'
p2110
g78
tp2111
a(S'the'
p2112
g22
tp2113
a(S'gas'
p2114
g2
tp2115
a(S'jet'
p2116
g2
tp2117
a(S'to'
p2118
g742
tp2119
a(S'turn'
p2120
g727
tp2121
a(S'it'
p2122
g5
tp2123
a(S'up'
p2124
g528
tp2125
a(g29
g29
tp2126
a(S'then'
p2127
g191
tp2128
a(S'changes'
p2129
g78
tp2130
a(S'her'
p2131
g341
tp2132
a(S'mind'
p2133
g2
tp2134
a(g29
g29
tp2135
a(S'and'
p2136
g128
tp2137
a(S'going'
p2138
g66
tp2139
a(S'to'
p2140
g742
tp2141
a(S'the'
p2142
g22
tp2143
a(S'curtains'
p2144
g78
tp2145
a(g29
g29
tp2146
a(S'draws'
p2147
g78
tp2148
a(S'them'
p2149
g5
tp2150
a(S'apart'
p2151
g81
tp2152
a(S'and'
p2153
g128
tp2154
a(S'throws'
p2155
g10
tp2156
a(S'up'
p2157
g528
tp2158
a(S'the'
p2159
g22
tp2160
a(S'window.'
p2161
g25
tp2162
a(S'Bright'
p2163
g25
tp2164
a(S'moonlight'
p2165
g121
tp2166
a(S'comes'
p2167
g10
tp2168
a(S'flooding'
p2169
g66
tp2170
a(S'in.'
p2171
g25
tp2172
a(S'Outside'
p2173
g25
tp2174
a(S'are'
p2175
g81
tp2176
a(S'seen'
p2177
g186
tp2178
a(S'the'
p2179
g22
tp2180
a(S'trees'
p2181
g78
tp2182
a(S'of'
p2183
g19
tp2184
a(g21
g22
tp2185
a(S'little'
p2186
g191
tp2187
a(S'Square.'
p2188
g25
tp2189
a(S'She'
p2190
g25
tp2191
a(S'stands'
p2192
g10
tp2193
a(S'gazing'
p2194
g66
tp2195
a(S'out'
p2196
g528
tp2197
a(g29
g29
tp2198
a(S'suddenly'
p2199
g191
tp2200
a(S'turns'
p2201
g10
tp2202
a(S'inward'
p2203
g2
tp2204
a(S'with'
p2205
g19
tp2206
a(g21
g22
tp2207
a(S'shiver'
p2208
g2
tp2209
a(g178
g178
tp2210
a(S'The'
p2211
g22
tp2212
a(S'scene'
p2213
g2
tp2214
a(S'is'
p2215
g10
tp2216
a(S'the'
p2217
g22
tp2218
a(S'sitting-room'
p2219
g16
tp2220
a(S'and'
p2221
g128
tp2222
a(S'verandah'
p2223
g2
tp2224
a(S'of'
p2225
g19
tp2226
a(S'HER'
p2227
g25
tp2228
a(S'bungalow'
p2229
g2
tp2230
a(g178
g178
tp2231
a(S'The'
p2232
g22
tp2233
a(S'room'
p2234
g2
tp2235
a(S'is'
p2236
g10
tp2237
a(S'pleasant'
p2238
g16
tp2239
a(g29
g29
tp2240
a(S'and'
p2241
g128
tp2242
a(S'along'
p2243
g19
tp2244
a(S'the'
p2245
g22
tp2246
a(S'back'
p2247
g2
tp2248
a(g29
g29
tp2249
a(S'where'
p2250
g52
tp2251
a(S'the'
p2252
g22
tp2253
a(S'verandah'
p2254
g2
tp2255
a(S'runs'
p2256
g10
tp2257
a(g29
g29
tp2258
a(S'it'
p2259
g5
tp2260
a(S'seems'
p2261
g10
tp2262
a(S'all'
p2263
g22
tp2264
a(S'window'
p2265
g2
tp2266
a(g29
g29
tp2267
a(S'both'
p2268
g22
tp2269
a(S'French'
p2270
g16
tp2271
a(S'and'
p2272
g128
tp2273
a(S'casement.'
p2274
g25
tp2275
a(S'There'
p2276
g25
tp2277
a(S'is'
p2278
g10
tp2279
a(g21
g22
tp2280
a(S'door'
p2281
g2
tp2282
a(S'right'
p2283
g191
tp2284
a(S'and'
p2285
g128
tp2286
a(g21
g22
tp2287
a(S'door'
p2288
g2
tp2289
a(S'left.'
p2290
g25
tp2291
a(S'The'
p2292
g25
tp2293
a(S'day'
p2294
g2
tp2295
a(S'is'
p2296
g10
tp2297
a(S'bright'
p2298
g16
tp2299
a(g564
g181
tp2300
a(S'the'
p2301
g22
tp2302
a(S'time'
p2303
g2
tp2304
a(S'morning'
p2305
g2
tp2306
a(g178
g178
tp2307
a(g180
g2
tp2308
a(S'HERSELF'
p2309
g5
tp2310
a(g29
g29
tp2311
a(S'dripping'
p2312
g66
tp2313
a(S'wet'
p2314
g2
tp2315
a(g29
g29
tp2316
a(S'comes'
p2317
g10
tp2318
a(S'running'
p2319
g66
tp2320
a(S'along'
p2321
g19
tp2322
a(S'the'
p2323
g22
tp2324
a(S'verandah'
p2325
g2
tp2326
a(g29
g29
tp2327
a(S'through'
p2328
g19
tp2329
a(S'the'
p2330
g22
tp2331
a(S'French'
p2332
g16
tp2333
a(S'window'
p2334
g2
tp2335
a(g29
g29
tp2336
a(S'with'
p2337
g19
tp2338
a(g21
g22
tp2339
a(S'wet'
p2340
g2
tp2341
a(S'Scotch'
p2342
g2
tp2343
a(S'terrier'
p2344
g2
tp2345
a(S'in'
p2346
g19
tp2347
a(S'her'
p2348
g341
tp2349
a(S'arms.'
p2350
g25
tp2351
a(S'She'
p2352
g25
tp2353
a(S'vanishes'
p2354
g10
tp2355
a(S'through'
p2356
g19
tp2357
a(S'the'
p2358
g22
tp2359
a(S'door'
p2360
g2
tp2361
a(S'left.'
p2362
g25
tp2363
a(g42
g22
tp2364
a(S'little'
p2365
g191
tp2366
a(S'pause'
p2367
g2
tp2368
a(g29
g29
tp2369
a(S'and'
p2370
g128
tp2371
a(S'LADY'
p2372
g25
tp2373
a(S'ELLA'
p2374
g25
tp2375
a(S'comes'
p2376
g10
tp2377
a(S'running'
p2378
g66
tp2379
a(g29
g29
tp2380
a(S'dry'
p2381
g16
tp2382
a(g29
g29
tp2383
a(S'thin'
p2384
g16
tp2385
a(g29
g29
tp2386
a(S'refined'
p2387
g186
tp2388
a(g29
g29
tp2389
a(S'and'
p2390
g128
tp2391
a(S'agitated.'
p2392
g25
tp2393
a(S'She'
p2394
g25
tp2395
a(S'halts'
p2396
g78
tp2397
a(S'where'
p2398
g52
tp2399
a(S'the'
p2400
g22
tp2401
a(S'tracks'
p2402
g78
tp2403
a(S'of'
p2404
g19
tp2405
a(S'water'
p2406
g2
tp2407
a(S'cease'
p2408
g2
tp2409
a(S'at'
p2410
g19
tp2411
a(S'the'
p2412
g22
tp2413
a(S'door'
p2414
g2
tp2415
a(S'left.'
p2416
g25
tp2417
a(g42
g22
tp2418
a(S'little'
p2419
g191
tp2420
a(S'pause'
p2421
g2
tp2422
a(g29
g29
tp2423
a(S'and'
p2424
g128
tp2425
a(S'MAUD'
p2426
g25
tp2427
a(S'comes'
p2428
g10
tp2429
a(S'running'
p2430
g66
tp2431
a(g29
g29
tp2432
a(S'fairly'
p2433
g191
tp2434
a(S'dry'
p2435
g16
tp2436
a(g29
g29
tp2437
a(S'stolid'
p2438
g16
tp2439
a(g29
g29
tp2440
a(S'breathless'
p2441
g2
tp2442
a(g29
g29
tp2443
a(S'and'
p2444
g128
tp2445
a(S'dragging'
p2446
g66
tp2447
a(g21
g22
tp2448
a(S'bull-dog'
p2449
g16
tp2450
a(g29
g29
tp2451
a(S'wet'
p2452
g2
tp2453
a(g29
g29
tp2454
a(S'breathless'
p2455
g2
tp2456
a(g29
g29
tp2457
a(S'and'
p2458
g128
tp2459
a(S'stout'
p2460
g19
tp2461
a(g29
g29
tp2462
a(S'by'
p2463
g19
tp2464
a(S'the'
p2465
g22
tp2466
a(S'crutch'
p2467
g2
tp2468
a(S'end'
p2469
g2
tp2470
a(S'of'
p2471
g19
tp2472
a(S'her'
p2473
g341
tp2474
a(S"'en-tout-cas"
p2475
g16
tp2476
a(S"'"
p2477
S"''"
p2478
tp2479
a(g345
g181
tp2480
a(g178
g178
tp2481
a(g42
g22
tp2482
a(S'Girl'
p2483
g25
tp2484
a(g29
g29
tp2485
a(S'sits'
p2486
g10
tp2487
a(S'crouched'
p2488
g186
tp2489
a(S'over'
p2490
g19
tp2491
a(S'her'
p2492
g341
tp2493
a(S'knees'
p2494
g78
tp2495
a(S'on'
p2496
g19
tp2497
a(g21
g22
tp2498
a(S'stile'
p2499
g2
tp2500
a(S'close'
p2501
g2
tp2502
a(S'to'
p2503
g742
tp2504
a(g21
g22
tp2505
a(S'river.'
p2506
g25
tp2507
a(g42
g25
tp2508
a(S'MAN'
p2509
g25
tp2510
a(S'with'
p2511
g19
tp2512
a(g21
g22
tp2513
a(S'silver'
p2514
g2
tp2515
a(S'badge'
p2516
g2
tp2517
a(S'stands'
p2518
g10
tp2519
a(S'beside'
p2520
g2
tp2521
a(S'her'
p2522
g341
tp2523
a(g29
g29
tp2524
a(S'clutching'
p2525
g66
tp2526
a(S'the'
p2527
g22
tp2528
a(S'worn'
p2529
g2
tp2530
a(S'top'
p2531
g2
tp2532
a(S'plank.'
p2533
g25
tp2534
a(S'THE'
p2535
g25
tp2536
a(S'GIRL'
p2537
g25
tp2538
a(S"'S"
p2539
g38
tp2540
a(S'level'
p2541
g2
tp2542
a(S'brows'
p2543
g10
tp2544
a(S'are'
p2545
g81
tp2546
a(S'drawn'
p2547
g186
tp2548
a(S'together'
p2549
g191
tp2550
a(g564
g181
tp2551
a(S'her'
p2552
g341
tp2553
a(S'eyes'
p2554
g78
tp2555
a(S'see'
p2556
g81
tp2557
a(S'her'
p2558
g5
tp2559
a(S'memories.'
p2560
g25
tp2561
a(S'THE'
p2562
g25
tp2563
a(S'MAN'
p2564
g25
tp2565
a(S"'s"
p2566
g38
tp2567
a(S'eyes'
p2568
g78
tp2569
a(S'see'
p2570
g81
tp2571
a(S'THE'
p2572
g22
tp2573
a(S'GIRL'
p2574
g25
tp2575
a(g564
g181
tp2576
a(S'he'
p2577
g5
tp2578
a(S'has'
p2579
g10
tp2580
a(g21
g22
tp2581
a(S'dark'
p2582
g16
tp2583
a(g29
g29
tp2584
a(S'twisted'
p2585
g186
tp2586
a(S'face.'
p2587
g25
tp2588
a(S'The'
p2589
g25
tp2590
a(S'bright'
p2591
g2
tp2592
a(S'sun'
p2593
g2
tp2594
a(S'shines'
p2595
g78
tp2596
a(g564
g181
tp2597
a(S'the'
p2598
g22
tp2599
a(S'quiet'
p2600
g16
tp2601
a(S'river'
p2602
g2
tp2603
a(S'flows'
p2604
g10
tp2605
a(g564
g181
tp2606
a(S'the'
p2607
g22
tp2608
a(S'Cuckoo'
p2609
g25
tp2610
a(S'is'
p2611
g10
tp2612
a(S'calling'
p2613
g66
tp2614
a(g564
g181
tp2615
a(S'the'
p2616
g22
tp2617
a(S'mayflower'
p2618
g2
tp2619
a(S'is'
p2620
g10
tp2621
a(S'in'
p2622
g19
tp2623
a(S'bloom'
p2624
g2
tp2625
a(S'along'
p2626
g19
tp2627
a(S'the'
p2628
g22
tp2629
a(S'hedge'
p2630
g2
tp2631
a(S'that'
p2632
g19
tp2633
a(S'ends'
p2634
g78
tp2635
a(S'in'
p2636
g19
tp2637
a(S'the'
p2638
g22
tp2639
a(S'stile'
p2640
g2
tp2641
a(S'on'
p2642
g19
tp2643
a(S'the'
p2644
g22
tp2645
a(S'towing-path'
p2646
g16
tp2647
a(g178
g178
tp2648
a(S'The'
p2649
g22
tp2650
a(S'Scene'
p2651
g25
tp2652
a(S'is'
p2653
g10
tp2654
a(S'the'
p2655
g22
tp2656
a(S'stage'
p2657
g2
tp2658
a(S'of'
p2659
g19
tp2660
a(S'the'
p2661
g22
tp2662
a(S'theatre'
p2663
g2
tp2664
a(S'set'
p2665
g121
tp2666
a(S'for'
p2667
g19
tp2668
a(S'the'
p2669
g22
tp2670
a(S'dress'
p2671
g2
tp2672
a(S'rehearsal'
p2673
g2
tp2674
a(S'of'
p2675
g19
tp2676
a(S'the'
p2677
g22
tp2678
a(S'little'
p2679
g16
tp2680
a(S'play'
p2681
g2
tp2682
a(g181
g181
tp2683
a(S'"'
p2684
g181
tp2685
a(S'Orpheus'
p2686
g25
tp2687
a(S'with'
p2688
g19
tp2689
a(S'his'
p2690
g341
tp2691
a(S'Lute.'
p2692
g25
tp2693
a(g2684
g25
tp2694
a(S'The'
p2695
g25
tp2696
a(S'curtain'
p2697
g2
tp2698
a(S'is'
p2699
g10
tp2700
a(S'up'
p2701
g19
tp2702
a(S'and'
p2703
g128
tp2704
a(S'the'
p2705
g22
tp2706
a(S'audience'
p2707
g2
tp2708
a(g29
g29
tp2709
a(S'though'
p2710
g19
tp2711
a(S'present'
p2712
g16
tp2713
a(g29
g29
tp2714
a(S'is'
p2715
g10
tp2716
a(S'not'
p2717
g191
tp2718
a(S'supposed'
p2719
g186
tp2720
a(S'to'
p2721
g742
tp2722
a(S'be.'
p2723
g25
tp2724
a(S'The'
p2725
g22
tp2726
a(S'set'
p2727
g2
tp2728
a(S'scene'
p2729
g2
tp2730
a(S'represents'
p2731
g10
tp2732
a(S'the'
p2733
g22
tp2734
a(S'end'
p2735
g2
tp2736
a(S'section'
p2737
g2
tp2738
a(S'of'
p2739
g19
tp2740
a(g21
g22
tp2741
a(S'room'
p2742
g2
tp2743
a(g29
g29
tp2744
a(S'with'
p2745
g19
tp2746
a(S'wide'
p2747
g16
tp2748
a(S'French'
p2749
g16
tp2750
a(S'windows'
p2751
g78
tp2752
a(g29
g29
tp2753
a(S'Back'
p2754
g25
tp2755
a(S'Centre'
p2756
g25
tp2757
a(g29
g29
tp2758
a(S'fully'
p2759
g191
tp2760
a(S'opened'
p2761
g186
tp2762
a(S'on'
p2763
g19
tp2764
a(S'to'
p2765
g742
tp2766
a(S'an'
p2767
g22
tp2768
a(S'apple'
p2769
g2
tp2770
a(S'orchard'
p2771
g2
tp2772
a(S'in'
p2773
g19
tp2774
a(S'bloom.'
p2775
g25
tp2776
a(S'The'
p2777
g25
tp2778
a(S'Back'
p2779
g25
tp2780
a(S'Wall'
p2781
g25
tp2782
a(S'with'
p2783
g19
tp2784
a(S'these'
p2785
g22
tp2786
a(S'French'
p2787
g16
tp2788
a(S'windows'
p2789
g78
tp2790
a(g29
g29
tp2791
a(S'is'
p2792
g10
tp2793
a(S'set'
p2794
g186
tp2795
a(S'only'
p2796
g191
tp2797
a(S'about'
p2798
g19
tp2799
a(S'ten'
p2800
g13
tp2801
a(S'feet'
p2802
g78
tp2803
a(S'from'
p2804
g19
tp2805
a(S'the'
p2806
g22
tp2807
a(S'footlights'
p2808
g78
tp2809
a(g29
g29
tp2810
a(S'and'
p2811
g128
tp2812
a(S'the'
p2813
g22
tp2814
a(S'rest'
p2815
g2
tp2816
a(S'of'
p2817
g19
tp2818
a(S'the'
p2819
g22
tp2820
a(S'stage'
p2821
g2
tp2822
a(S'is'
p2823
g10
tp2824
a(S'orchard.'
p2825
g25
tp2826
a(S'What'
p2827
g2097
tp2828
a(S'is'
p2829
g10
tp2830
a(S'visible'
p2831
g16
tp2832
a(S'of'
p2833
g19
tp2834
a(S'the'
p2835
g22
tp2836
a(S'room'
p2837
g2
tp2838
a(S'would'
p2839
g1026
tp2840
a(S'indicate'
p2841
g727
tp2842
a(S'the'
p2843
g22
tp2844
a(S'study'
p2845
g2
tp2846
a(S'of'
p2847
g19
tp2848
a(g21
g22
tp2849
a(S'writing'
p2850
g2
tp2851
a(S'man'
p2852
g2
tp2853
a(S'of'
p2854
g19
tp2855
a(S'culture.'
p2856
g25
tp2857
a(S'('
p2858
g25
tp2859
a(S'Note.--If'
p2860
g25
tp2861
a(S'found'
p2862
g121
tp2863
a(S'advantageous'
p2864
g16
tp2865
a(S'for'
p2866
g19
tp2867
a(S'scenic'
p2868
g16
tp2869
a(S'purposes'
p2870
g78
tp2871
a(g29
g29
tp2872
a(S'this'
p2873
g22
tp2874
a(S'section'
p2875
g2
tp2876
a(S'of'
p2877
g19
tp2878
a(S'room'
p2879
g2
tp2880
a(S'can'
p2881
g1026
tp2882
a(S'be'
p2883
g727
tp2884
a(S'changed'
p2885
g186
tp2886
a(S'to'
p2887
g742
tp2888
a(g21
g22
tp2889
a(S'broad'
p2890
g16
tp2891
a(S'verandah'
p2892
g2
tp2893
a(S'or'
p2894
g128
tp2895
a(S'porch'
p2896
g2
tp2897
a(S'with'
p2898
g19
tp2899
a(S'pillars'
p2900
g78
tp2901
a(S'supporting'
p2902
g66
tp2903
a(S'its'
p2904
g341
tp2905
a(S'roof.'
p2906
g25
tp2907
a(S')'
p2908
g25
tp2909
a(S'In'
p2910
g25
tp2911
a(S'the'
p2912
g22
tp2913
a(S'wall'
p2914
g2
tp2915
a(g29
g29
tp2916
a(S'Stage'
p2917
g25
tp2918
a(S'Left'
p2919
g25
tp2920
a(g29
g29
tp2921
a(S'is'
p2922
g10
tp2923
a(g21
g22
tp2924
a(S'curtained'
p2925
g186
tp2926
a(S'opening'
p2927
g66
tp2928
a(g29
g29
tp2929
a(S'across'
p2930
g19
tp2931
a(S'which'
p2932
g295
tp2933
a(S'the'
p2934
g22
tp2935
a(S'curtain'
p2936
g2
tp2937
a(S'is'
p2938
g10
tp2939
a(S'half'
p2940
g22
tp2941
a(S'drawn.'
p2942
g25
tp2943
a(S'Stage'
p2944
g25
tp2945
a(S'Right'
p2946
g25
tp2947
a(S'of'
p2948
g19
tp2949
a(S'the'
p2950
g22
tp2951
a(S'French'
p2952
g16
tp2953
a(S'windows'
p2954
g78
tp2955
a(S'is'
p2956
g10
tp2957
a(g21
g22
tp2958
a(S'large'
p2959
g16
tp2960
a(S'armchair'
p2961
g2
tp2962
a(S'turned'
p2963
g121
tp2964
a(S'rather'
p2965
g191
tp2966
a(S'towards'
p2967
g78
tp2968
a(S'the'
p2969
g22
tp2970
a(S'window'
p2971
g2
tp2972
a(g29
g29
tp2973
a(S'with'
p2974
g19
tp2975
a(g21
g22
tp2976
a(S'book'
p2977
g2
tp2978
a(S'rest'
p2979
g2
tp2980
a(S'attached'
p2981
g121
tp2982
a(g29
g29
tp2983
a(S'on'
p2984
g19
tp2985
a(S'which'
p2986
g295
tp2987
a(S'is'
p2988
g10
tp2989
a(g21
g22
tp2990
a(S'volume'
p2991
g2
tp2992
a(S'of'
p2993
g19
tp2994
a(S'the'
p2995
g22
tp2996
a(S'Encyclopedia'
p2997
g25
tp2998
a(S'Britannica'
p2999
g25
tp3000
a(g29
g29
tp3001
a(S'while'
p3002
g19
tp3003
a(S'on'
p3004
g19
tp3005
a(g21
g22
tp3006
a(S'stool'
p3007
g2
tp3008
a(S'alongside'
p3009
g2
tp3010
a(S'are'
p3011
g81
tp3012
a(S'writing'
p3013
g66
tp3014
a(S'materials'
p3015
g78
tp3016
a(S'such'
p3017
g16
tp3018
a(S'as'
p3019
g19
tp3020
a(g21
g22
tp3021
a(S'man'
p3022
g2
tp3023
a(S'requires'
p3024
g10
tp3025
a(S'when'
p3026
g52
tp3027
a(S'he'
p3028
g5
tp3029
a(S'writes'
p3030
g10
tp3031
a(S'with'
p3032
g19
tp3033
a(g21
g22
tp3034
a(S'pad'
p3035
g16
tp3036
a(S'on'
p3037
g19
tp3038
a(S'his'
p3039
g341
tp3040
a(S'knees.'
p3041
g25
tp3042
a(S'On'
p3043
g25
tp3044
a(g21
g22
tp3045
a(S'little'
p3046
g191
tp3047
a(S'table'
p3048
g16
tp3049
a(S'close'
p3050
g2
tp3051
a(S'by'
p3052
g19
tp3053
a(S'is'
p3054
g10
tp3055
a(g21
g22
tp3056
a(S'reading-lamp'
p3057
g16
tp3058
a(S'with'
p3059
g19
tp3060
a(g21
g22
tp3061
a(S'dark'
p3062
g16
tp3063
a(S'green'
p3064
g16
tp3065
a(S'shade.'
p3066
g25
tp3067
a(g42
g22
tp3068
a(S'crude'
p3069
g16
tp3070
a(S'light'
p3071
g2
tp3072
a(S'from'
p3073
g19
tp3074
a(S'the'
p3075
g22
tp3076
a(S'floats'
p3077
g78
tp3078
a(S'makes'
p3079
g10
tp3080
a(S'the'
p3081
g22
tp3082
a(S'stage'
p3083
g2
tp3084
a(S'stare'
p3085
g2
tp3086
a(g564
g181
tp3087
a(S'the'
p3088
g22
tp3089
a(S'only'
p3090
g16
tp3091
a(S'person'
p3092
g2
tp3093
a(S'on'
p3094
g19
tp3095
a(S'it'
p3096
g5
tp3097
a(S'is'
p3098
g10
tp3099
a(S'MR'
p3100
g25
tp3101
a(S'FORESON'
p3102
g25
tp3103
a(g29
g29
tp3104
a(S'the'
p3105
g22
tp3106
a(S'stage'
p3107
g2
tp3108
a(S'manager'
p3109
g2
tp3110
a(g29
g29
tp3111
a(S'who'
p3112
g2097
tp3113
a(S'is'
p3114
g10
tp3115
a(S'standing'
p3116
g66
tp3117
a(S'in'
p3118
g19
tp3119
a(S'the'
p3120
g22
tp3121
a(S'centre'
p3122
g2
tp3123
a(S'looking'
p3124
g66
tp3125
a(S'upwards'
p3126
g78
tp3127
a(S'as'
p3128
g19
tp3129
a(S'if'
p3130
g19
tp3131
a(S'waiting'
p3132
g66
tp3133
a(S'for'
p3134
g19
tp3135
a(S'someone'
p3136
g2
tp3137
a(S'to'
p3138
g742
tp3139
a(S'speak.'
p3140
g25
tp3141
a(S'He'
p3142
g25
tp3143
a(S'is'
p3144
g10
tp3145
a(g21
g22
tp3146
a(S'short'
p3147
g16
tp3148
a(g29
g29
tp3149
a(S'broad'
p3150
g16
tp3151
a(S'man'
p3152
g2
tp3153
a(g29
g29
tp3154
a(S'rather'
p3155
g191
tp3156
a(S'blank'
p3157
g727
tp3158
a(g29
g29
tp3159
a(S'and'
p3160
g128
tp3161
a(S'fatal.'
p3162
g25
tp3163
a(S'From'
p3164
g25
tp3165
a(S'the'
p3166
g22
tp3167
a(S'back'
p3168
g2
tp3169
a(S'of'
p3170
g19
tp3171
a(S'the'
p3172
g22
tp3173
a(S'auditorium'
p3174
g2
tp3175
a(g29
g29
tp3176
a(S'or'
p3177
g128
tp3178
a(S'from'
p3179
g19
tp3180
a(S'an'
p3181
g22
tp3182
a(S'empty'
p3183
g2
tp3184
a(S'box'
p3185
g2
tp3186
a(g29
g29
tp3187
a(S'whichever'
p3188
g191
tp3189
a(S'is'
p3190
g10
tp3191
a(S'most'
p3192
S'RBS'
p3193
tp3194
a(S'convenient'
p3195
g16
tp3196
a(g29
g29
tp3197
a(S'the'
p3198
g22
tp3199
a(S'producer'
p3200
g2
tp3201
a(g29
g29
tp3202
a(S'MR'
p3203
g25
tp3204
a(S'BLEWITT'
p3205
g25
tp3206
a(S'VANE'
p3207
g25
tp3208
a(g29
g29
tp3209
a(g21
g22
tp3210
a(S'man'
p3211
g2
tp3212
a(S'of'
p3213
g19
tp3214
a(S'about'
p3215
g191
tp3216
a(S'thirty'
p3217
g16
tp3218
a(S'four'
p3219
g13
tp3220
a(g29
g29
tp3221
a(S'with'
p3222
g19
tp3223
a(S'his'
p3224
g341
tp3225
a(S'hair'
p3226
g2
tp3227
a(S'brushed'
p3228
g121
tp3229
a(S'back'
p3230
g528
tp3231
a(g29
g29
tp3232
a(S'speaks'
p3233
g78
tp3234
a(g178
g178
tp3235
a.