(lp0
(S'It'
p1
S'PRP'
p2
tp3
a(S'is'
p4
S'VBZ'
p5
tp6
a(S'eight'
p7
S'CD'
p8
tp9
a(S"o'clock"
p10
S'JJ'
p11
tp12
a(S'in'
p13
S'IN'
p14
tp15
a(S'the'
p16
S'DT'
p17
tp18
a(S'evening.'
p19
S'NNP'
p20
tp21
a(S'The'
p22
g20
tp23
a(S'curtains'
p24
S'NNS'
p25
tp26
a(S'are'
p27
S'VBP'
p28
tp29
a(S'drawn'
p30
S'VBN'
p31
tp32
a(S'and'
p33
S'CC'
p34
tp35
a(S'the'
p36
g17
tp37
a(S'lamps'
p38
g25
tp39
a(S'lighted'
p40
S'VBD'
p41
tp42
a(S'in'
p43
g14
tp44
a(S'the'
p45
g17
tp46
a(S'drawing'
p47
S'NN'
p48
tp49
a(S'room'
p50
g48
tp51
a(S'of'
p52
g14
tp53
a(S'Her'
p54
g20
tp55
a(S'flat'
p56
g11
tp57
a(S'in'
p58
g14
tp59
a(S'Cromwell'
p60
g20
tp61
a(S'Road.'
p62
g20
tp63
a(S'Her'
p64
g20
tp65
a(S'lover'
p66
g48
tp67
a(S','
p68
g68
tp69
a(S'a'
p70
g17
tp71
a(S'beautiful'
p72
g11
tp73
a(S'youth'
p74
g48
tp75
a(S'of'
p76
g14
tp77
a(S'eighteen'
p78
g48
tp79
a(g68
g68
tp80
a(S'in'
p81
g14
tp82
a(S'evening'
p83
g48
tp84
a(S'dress'
p85
g48
tp86
a(S'and'
p87
g34
tp88
a(S'cape'
p89
g48
tp90
a(g68
g68
tp91
a(S'with'
p92
g14
tp93
a(g70
g17
tp94
a(S'bunch'
p95
g48
tp96
a(S'of'
p97
g14
tp98
a(S'flowers'
p99
g25
tp100
a(S'and'
p101
g34
tp102
a(S'an'
p103
g17
tp104
a(S'opera'
p105
g48
tp106
a(S'hat'
p107
S'WDT'
p108
tp109
a(S'in'
p110
g14
tp111
a(S'his'
p112
S'PRP$'
p113
tp114
a(S'hands'
p115
g25
tp116
a(g68
g68
tp117
a(S'comes'
p118
g5
tp119
a(S'in'
p120
g14
tp121
a(S'alone.'
p122
g20
tp123
a(S'The'
p124
g20
tp125
a(S'door'
p126
g48
tp127
a(S'is'
p128
g5
tp129
a(S'near'
p130
g14
tp131
a(S'the'
p132
g17
tp133
a(S'corner'
p134
g48
tp135
a(S';'
p136
S':'
p137
tp138
a(S'and'
p139
g34
tp140
a(S'as'
p141
g14
tp142
a(S'he'
p143
g2
tp144
a(S'appears'
p145
g5
tp146
a(S'in'
p147
g14
tp148
a(S'the'
p149
g17
tp150
a(S'doorway'
p151
g48
tp152
a(g68
g68
tp153
a(S'he'
p154
g2
tp155
a(S'has'
p156
g5
tp157
a(S'the'
p158
g17
tp159
a(S'fireplace'
p160
g48
tp161
a(S'on'
p162
g14
tp163
a(S'the'
p164
g17
tp165
a(S'nearest'
p166
S'JJS'
p167
tp168
a(S'wall'
p169
g48
tp170
a(S'to'
p171
S'TO'
p172
tp173
a(S'his'
p174
g113
tp175
a(S'right'
p176
g48
tp177
a(g68
g68
tp178
a(S'and'
p179
g34
tp180
a(S'the'
p181
g17
tp182
a(S'grand'
p183
g48
tp184
a(S'piano'
p185
g48
tp186
a(S'along'
p187
g14
tp188
a(S'the'
p189
g17
tp190
a(S'opposite'
p191
g11
tp192
a(S'wall'
p193
g48
tp194
a(S'to'
p195
g172
tp196
a(S'his'
p197
g113
tp198
a(S'left.'
p199
g20
tp200
a(S'Near'
p201
g20
tp202
a(S'the'
p203
g17
tp204
a(S'fireplace'
p205
g48
tp206
a(g70
g17
tp207
a(S'small'
p208
g11
tp209
a(S'ornamental'
p210
g11
tp211
a(S'table'
p212
g11
tp213
a(S'has'
p214
g5
tp215
a(S'on'
p216
g14
tp217
a(S'it'
p218
g2
tp219
a(g70
g17
tp220
a(S'hand'
p221
g48
tp222
a(S'mirror'
p223
g48
tp224
a(g68
g68
tp225
a(g70
g17
tp226
a(S'fan'
p227
g48
tp228
a(g68
g68
tp229
a(g70
g17
tp230
a(S'pair'
p231
g48
tp232
a(S'of'
p233
g14
tp234
a(S'long'
p235
g11
tp236
a(S'white'
p237
g11
tp238
a(S'gloves'
p239
g25
tp240
a(g68
g68
tp241
a(S'and'
p242
g34
tp243
a(g70
g17
tp244
a(S'little'
p245
S'RB'
p246
tp247
a(S'white'
p248
g11
tp249
a(S'woollen'
p250
g48
tp251
a(S'cloud'
p252
g48
tp253
a(S'to'
p254
g172
tp255
a(S'wrap'
p256
S'VB'
p257
tp258
a(g70
g17
tp259
a(S'woman'
p260
g48
tp261
a(S"'s"
p262
S'POS'
p263
tp264
a(S'head'
p265
g48
tp266
a(S'in.'
p267
g20
tp268
a(S'On'
p269
g20
tp270
a(S'the'
p271
g17
tp272
a(S'other'
p273
g11
tp274
a(S'side'
p275
g48
tp276
a(S'of'
p277
g14
tp278
a(S'the'
p279
g17
tp280
a(S'room'
p281
g48
tp282
a(g68
g68
tp283
a(S'near'
p284
g14
tp285
a(S'the'
p286
g17
tp287
a(S'piano'
p288
g48
tp289
a(g68
g68
tp290
a(S'is'
p291
g5
tp292
a(g70
g17
tp293
a(S'broad'
p294
g11
tp295
a(g68
g68
tp296
a(S'square'
p297
g11
tp298
a(g68
g68
tp299
a(S'softly'
p300
g246
tp301
a(S'up-holstered'
p302
g11
tp303
a(S'stool.'
p304
g20
tp305
a(S'The'
p306
g20
tp307
a(S'room'
p308
g48
tp309
a(S'is'
p310
g5
tp311
a(S'furnished'
p312
g31
tp313
a(S'in'
p314
g14
tp315
a(S'the'
p316
g17
tp317
a(S'most'
p318
S'RBS'
p319
tp320
a(S'approved'
p321
g11
tp322
a(S'South'
p323
g20
tp324
a(S'Kensington'
p325
g20
tp326
a(S'fashion'
p327
g48
tp328
a(g137
g137
tp329
a(S'that'
p330
g14
tp331
a(S'is'
p332
g5
tp333
a(g68
g68
tp334
a(S'it'
p335
g2
tp336
a(S'is'
p337
g5
tp338
a(S'as'
p339
g14
tp340
a(S'like'
p341
g14
tp342
a(g70
g17
tp343
a(S'show'
p344
g48
tp345
a(S'room'
p346
g48
tp347
a(S'as'
p348
g14
tp349
a(S'possible'
p350
g11
tp351
a(g68
g68
tp352
a(S'and'
p353
g34
tp354
a(S'is'
p355
g5
tp356
a(S'intended'
p357
g31
tp358
a(S'to'
p359
g172
tp360
a(S'demonstrate'
p361
g257
tp362
a(S'the'
p363
g17
tp364
a(S'racial'
p365
g11
tp366
a(S'position'
p367
g48
tp368
a(S'and'
p369
g34
tp370
a(S'spending'
p371
g48
tp372
a(S'powers'
p373
g25
tp374
a(S'of'
p375
g14
tp376
a(S'its'
p377
g113
tp378
a(S'owners'
p379
g25
tp380
a(g68
g68
tp381
a(S'and'
p382
g34
tp383
a(S'not'
p384
g246
tp385
a(S'in'
p386
g14
tp387
a(S'the'
p388
g17
tp389
a(S'least'
p390
g167
tp391
a(S'to'
p392
g172
tp393
a(S'make'
p394
g257
tp395
a(S'them'
p396
g2
tp397
a(S'comfortable'
p398
g11
tp399
a(S'.'
p400
g400
tp401
a(S'He'
p402
g2
tp403
a(S'is'
p404
g5
tp405
a(g68
g68
tp406
a(S'be'
p407
g257
tp408
a(S'it'
p409
g2
tp410
a(S'repeated'
p411
g41
tp412
a(g68
g68
tp413
a(g70
g17
tp414
a(S'very'
p415
g246
tp416
a(S'beautiful'
p417
g11
tp418
a(S'youth'
p419
g48
tp420
a(g68
g68
tp421
a(S'moving'
p422
S'VBG'
p423
tp424
a(S'as'
p425
g14
tp426
a(S'in'
p427
g14
tp428
a(g70
g17
tp429
a(S'dream'
p430
g48
tp431
a(g68
g68
tp432
a(S'walking'
p433
g423
tp434
a(S'as'
p435
g14
tp436
a(S'on'
p437
g14
tp438
a(S'air.'
p439
g20
tp440
a(S'He'
p441
g20
tp442
a(S'puts'
p443
g5
tp444
a(S'his'
p445
g113
tp446
a(S'flowers'
p447
g25
tp448
a(S'down'
p449
g14
tp450
a(S'carefully'
p451
g246
tp452
a(S'on'
p453
g14
tp454
a(S'the'
p455
g17
tp456
a(S'table'
p457
g48
tp458
a(S'beside'
p459
g48
tp460
a(S'the'
p461
g17
tp462
a(S'fan'
p463
g48
tp464
a(g136
g137
tp465
a(S'takes'
p466
g5
tp467
a(S'off'
p468
S'RP'
p469
tp470
a(S'his'
p471
g113
tp472
a(S'cape'
p473
g48
tp474
a(g68
g68
tp475
a(S'and'
p476
g34
tp477
a(g68
g68
tp478
a(S'as'
p479
g14
tp480
a(S'there'
p481
S'EX'
p482
tp483
a(S'is'
p484
g5
tp485
a(S'no'
p486
g17
tp487
a(S'room'
p488
g48
tp489
a(S'on'
p490
g14
tp491
a(S'the'
p492
g17
tp493
a(S'table'
p494
g48
tp495
a(S'for'
p496
g14
tp497
a(S'it'
p498
g2
tp499
a(g68
g68
tp500
a(S'takes'
p501
g5
tp502
a(S'it'
p503
g2
tp504
a(S'to'
p505
g172
tp506
a(S'the'
p507
g17
tp508
a(S'piano'
p509
g48
tp510
a(g136
g137
tp511
a(S'puts'
p512
g25
tp513
a(S'his'
p514
g113
tp515
a(S'hat'
p516
g48
tp517
a(S'on'
p518
g14
tp519
a(S'the'
p520
g17
tp521
a(S'cape'
p522
g48
tp523
a(g136
g137
tp524
a(S'crosses'
p525
g25
tp526
a(S'to'
p527
g172
tp528
a(S'the'
p529
g17
tp530
a(S'hearth'
p531
g48
tp532
a(g136
g137
tp533
a(S'looks'
p534
g25
tp535
a(S'at'
p536
g14
tp537
a(S'his'
p538
g113
tp539
a(S'watch'
p540
g48
tp541
a(g136
g137
tp542
a(S'puts'
p543
g25
tp544
a(S'it'
p545
g2
tp546
a(S'up'
p547
g246
tp548
a(S'again'
p549
g246
tp550
a(g136
g137
tp551
a(S'notices'
p552
g25
tp553
a(S'the'
p554
g17
tp555
a(S'things'
p556
g25
tp557
a(S'on'
p558
g14
tp559
a(S'the'
p560
g17
tp561
a(S'table'
p562
g48
tp563
a(g136
g137
tp564
a(S'lights'
p565
g25
tp566
a(S'up'
p567
g14
tp568
a(S'as'
p569
g246
tp570
a(S'if'
p571
g14
tp572
a(S'he'
p573
g2
tp574
a(S'saw'
p575
g41
tp576
a(S'heaven'
p577
g31
tp578
a(S'opening'
p579
g423
tp580
a(S'before'
p581
g246
tp582
a(S'him'
p583
g2
tp584
a(g136
g137
tp585
a(S'goes'
p586
g5
tp587
a(S'to'
p588
g172
tp589
a(S'the'
p590
g17
tp591
a(S'table'
p592
g48
tp593
a(S'and'
p594
g34
tp595
a(S'takes'
p596
g5
tp597
a(S'the'
p598
g17
tp599
a(S'cloud'
p600
g48
tp601
a(S'in'
p602
g14
tp603
a(S'both'
p604
g17
tp605
a(S'hands'
p606
g25
tp607
a(g68
g68
tp608
a(S'nestling'
p609
g423
tp610
a(S'his'
p611
g113
tp612
a(S'nose'
p613
g48
tp614
a(S'into'
p615
g14
tp616
a(S'its'
p617
g113
tp618
a(S'softness'
p619
g48
tp620
a(S'and'
p621
g34
tp622
a(S'kissing'
p623
g423
tp624
a(S'it'
p625
g2
tp626
a(g136
g137
tp627
a(S'kisses'
p628
g25
tp629
a(S'the'
p630
g17
tp631
a(S'gloves'
p632
g25
tp633
a(S'one'
p634
g8
tp635
a(S'after'
p636
g14
tp637
a(S'another'
p638
g17
tp639
a(g136
g137
tp640
a(S'kisses'
p641
g25
tp642
a(S'the'
p643
g17
tp644
a(S'fan'
p645
g48
tp646
a(g137
g137
tp647
a(S'gasps'
p648
g25
tp649
a(g70
g17
tp650
a(S'long'
p651
g11
tp652
a(S'shuddering'
p653
g48
tp654
a(S'sigh'
p655
g48
tp656
a(S'of'
p657
g14
tp658
a(S'ecstasy'
p659
g11
tp660
a(g136
g137
tp661
a(S'sits'
p662
g25
tp663
a(S'down'
p664
g14
tp665
a(S'on'
p666
g14
tp667
a(S'the'
p668
g17
tp669
a(S'stool'
p670
g48
tp671
a(S'and'
p672
g34
tp673
a(S'presses'
p674
g25
tp675
a(S'his'
p676
g113
tp677
a(S'hands'
p678
g25
tp679
a(S'to'
p680
g172
tp681
a(S'his'
p682
g113
tp683
a(S'eyes'
p684
g25
tp685
a(S'to'
p686
g172
tp687
a(S'shut'
p688
g257
tp689
a(S'out'
p690
g469
tp691
a(S'reality'
p692
g48
tp693
a(S'and'
p694
g34
tp695
a(S'dream'
p696
g48
tp697
a(g70
g17
tp698
a(S'little'
p699
g246
tp700
a(g136
g137
tp701
a(S'takes'
p702
g5
tp703
a(S'his'
p704
g113
tp705
a(S'hands'
p706
g25
tp707
a(S'down'
p708
g14
tp709
a(S'and'
p710
g34
tp711
a(S'shakes'
p712
g25
tp713
a(S'his'
p714
g113
tp715
a(S'head'
p716
g48
tp717
a(S'with'
p718
g14
tp719
a(g70
g17
tp720
a(S'little'
p721
g246
tp722
a(S'smile'
p723
g11
tp724
a(S'of'
p725
g14
tp726
a(S'rebuke'
p727
g48
tp728
a(S'for'
p729
g14
tp730
a(S'his'
p731
g113
tp732
a(S'folly'
p733
g246
tp734
a(g136
g137
tp735
a(S'catches'
p736
g25
tp737
a(S'sight'
p738
g28
tp739
a(S'of'
p740
g14
tp741
a(g70
g17
tp742
a(S'speck'
p743
g48
tp744
a(S'of'
p745
g14
tp746
a(S'dust'
p747
g48
tp748
a(S'on'
p749
g14
tp750
a(S'his'
p751
g113
tp752
a(S'shoes'
p753
g25
tp754
a(S'and'
p755
g34
tp756
a(S'hastily'
p757
g246
tp758
a(S'and'
p759
g34
tp760
a(S'carefully'
p761
g246
tp762
a(S'brushes'
p763
g5
tp764
a(S'it'
p765
g2
tp766
a(S'off'
p767
g469
tp768
a(S'with'
p769
g14
tp770
a(S'his'
p771
g113
tp772
a(S'handkerchief'
p773
g48
tp774
a(g136
g137
tp775
a(S'rises'
p776
g25
tp777
a(S'and'
p778
g34
tp779
a(S'takes'
p780
g5
tp781
a(S'the'
p782
g17
tp783
a(S'hand'
p784
g48
tp785
a(S'mirror'
p786
g48
tp787
a(S'from'
p788
g14
tp789
a(S'the'
p790
g17
tp791
a(S'table'
p792
g48
tp793
a(S'to'
p794
g172
tp795
a(S'make'
p796
g257
tp797
a(S'sure'
p798
g11
tp799
a(S'of'
p800
g14
tp801
a(S'his'
p802
g113
tp803
a(S'tie'
p804
g48
tp805
a(S'with'
p806
g14
tp807
a(S'the'
p808
g17
tp809
a(S'gravest'
p810
g167
tp811
a(S'anxiety'
p812
g48
tp813
a(g136
g137
tp814
a(S'and'
p815
g34
tp816
a(S'is'
p817
g5
tp818
a(S'looking'
p819
g423
tp820
a(S'at'
p821
g14
tp822
a(S'his'
p823
g113
tp824
a(S'watch'
p825
g48
tp826
a(S'again'
p827
g246
tp828
a(S'when'
p829
S'WRB'
p830
tp831
a(S'She'
p832
g2
tp833
a(S'comes'
p834
g5
tp835
a(S'in'
p836
g14
tp837
a(g68
g68
tp838
a(S'much'
p839
g246
tp840
a(S'flustered.'
p841
g20
tp842
a(S'As'
p843
g20
tp844
a(S'she'
p845
g2
tp846
a(S'is'
p847
g5
tp848
a(S'dressed'
p849
g31
tp850
a(S'for'
p851
g14
tp852
a(S'the'
p853
g17
tp854
a(S'theatre'
p855
g48
tp856
a(g136
g137
tp857
a(S'has'
p858
g5
tp859
a(S'spoilt'
p860
g31
tp861
a(g68
g68
tp862
a(S'petted'
p863
g31
tp864
a(S'ways'
p865
g25
tp866
a(g136
g137
tp867
a(S'and'
p868
g34
tp869
a(S'wears'
p870
g25
tp871
a(S'many'
p872
g11
tp873
a(S'diamonds'
p874
g25
tp875
a(g68
g68
tp876
a(S'she'
p877
g2
tp878
a(S'has'
p879
g5
tp880
a(S'an'
p881
g17
tp882
a(S'air'
p883
g48
tp884
a(S'of'
p885
g14
tp886
a(S'being'
p887
g423
tp888
a(g70
g17
tp889
a(S'young'
p890
g11
tp891
a(S'and'
p892
g34
tp893
a(S'beautiful'
p894
g11
tp895
a(S'woman'
p896
g48
tp897
a(g136
g137
tp898
a(S'but'
p899
g34
tp900
a(S'as'
p901
g14
tp902
a(g70
g17
tp903
a(S'matter'
p904
g48
tp905
a(S'of'
p906
g14
tp907
a(S'hard'
p908
g11
tp909
a(S'fact'
p910
g48
tp911
a(g68
g68
tp912
a(S'she'
p913
g2
tp914
a(S'is'
p915
g5
tp916
a(g68
g68
tp917
a(S'dress'
p918
g48
tp919
a(S'and'
p920
g34
tp921
a(S'pretensions'
p922
g25
tp923
a(S'apart'
p924
g48
tp925
a(g68
g68
tp926
a(g70
g17
tp927
a(S'very'
p928
g246
tp929
a(S'ordinary'
p930
g11
tp931
a(S'South'
p932
g20
tp933
a(S'Kensington'
p934
g20
tp935
a(S'female'
p936
g48
tp937
a(S'of'
p938
g14
tp939
a(S'about'
p940
g246
tp941
a(S'37'
p942
g8
tp943
a(g68
g68
tp944
a(S'hopelessly'
p945
g246
tp946
a(S'inferior'
p947
g11
tp948
a(S'in'
p949
g14
tp950
a(S'physical'
p951
g11
tp952
a(S'and'
p953
g34
tp954
a(S'spiritual'
p955
g11
tp956
a(S'distinction'
p957
g48
tp958
a(S'to'
p959
g172
tp960
a(S'the'
p961
g17
tp962
a(S'beautiful'
p963
g11
tp964
a(S'youth'
p965
g48
tp966
a(g68
g68
tp967
a(S'who'
p968
S'WP'
p969
tp970
a(S'hastily'
p971
g246
tp972
a(S'puts'
p973
g5
tp974
a(S'down'
p975
g14
tp976
a(S'the'
p977
g17
tp978
a(S'mirror'
p979
g48
tp980
a(S'as'
p981
g14
tp982
a(S'she'
p983
g2
tp984
a(S'enters'
p985
g5
tp986
a(g400
g400
tp987
a(S'The'
p988
g17
tp989
a(S'Mayor'
p990
g20
tp991
a(S"'s"
p992
g263
tp993
a(S'parlor'
p994
g48
tp995
a(S'in'
p996
g14
tp997
a(S'the'
p998
g17
tp999
a(S'Town'
p1000
g20
tp1001
a(S'Hall'
p1002
g20
tp1003
a(S'of'
p1004
g14
tp1005
a(S'Little'
p1006
g20
tp1007
a(S'Pifflington.'
p1008
g20
tp1009
a(S'Lord'
p1010
g20
tp1011
a(S'Augustus'
p1012
g20
tp1013
a(S'Highcastle'
p1014
g20
tp1015
a(g68
g68
tp1016
a(g70
g17
tp1017
a(S'distinguished'
p1018
g11
tp1019
a(S'member'
p1020
g48
tp1021
a(S'of'
p1022
g14
tp1023
a(S'the'
p1024
g17
tp1025
a(S'governing'
p1026
g48
tp1027
a(S'class'
p1028
g48
tp1029
a(g68
g68
tp1030
a(S'in'
p1031
g14
tp1032
a(S'the'
p1033
g17
tp1034
a(S'uniform'
p1035
g48
tp1036
a(S'of'
p1037
g14
tp1038
a(g70
g17
tp1039
a(S'colonel'
p1040
g48
tp1041
a(g68
g68
tp1042
a(S'and'
p1043
g34
tp1044
a(S'very'
p1045
g246
tp1046
a(S'well'
p1047
g246
tp1048
a(S'preserved'
p1049
g31
tp1050
a(S'at'
p1051
g14
tp1052
a(S'forty-five'
p1053
g11
tp1054
a(g68
g68
tp1055
a(S'is'
p1056
g5
tp1057
a(S'comfortably'
p1058
g246
tp1059
a(S'seated'
p1060
g31
tp1061
a(S'at'
p1062
g14
tp1063
a(g70
g17
tp1064
a(S'writing-table'
p1065
g11
tp1066
a(S'with'
p1067
g14
tp1068
a(S'his'
p1069
g113
tp1070
a(S'heels'
p1071
g25
tp1072
a(S'on'
p1073
g14
tp1074
a(S'it'
p1075
g2
tp1076
a(g68
g68
tp1077
a(S'reading'
p1078
g423
tp1079
a(S'The'
p1080
g17
tp1081
a(S'Morning'
p1082
g20
tp1083
a(S'Post.'
p1084
g20
tp1085
a(S'The'
p1086
g20
tp1087
a(S'door'
p1088
g48
tp1089
a(S'faces'
p1090
g25
tp1091
a(S'him'
p1092
g2
tp1093
a(g68
g68
tp1094
a(g70
g17
tp1095
a(S'little'
p1096
g246
tp1097
a(S'to'
p1098
g172
tp1099
a(S'his'
p1100
g113
tp1101
a(S'left'
p1102
g48
tp1103
a(g68
g68
tp1104
a(S'at'
p1105
g14
tp1106
a(S'the'
p1107
g17
tp1108
a(S'other'
p1109
g11
tp1110
a(S'side'
p1111
g48
tp1112
a(S'of'
p1113
g14
tp1114
a(S'the'
p1115
g17
tp1116
a(S'room.'
p1117
g20
tp1118
a(S'The'
p1119
g20
tp1120
a(S'window'
p1121
g48
tp1122
a(S'is'
p1123
g5
tp1124
a(S'behind'
p1125
g14
tp1126
a(S'him.'
p1127
g20
tp1128
a(S'In'
p1129
g20
tp1130
a(S'the'
p1131
g17
tp1132
a(S'fireplace'
p1133
g48
tp1134
a(g68
g68
tp1135
a(g70
g17
tp1136
a(S'gas'
p1137
g48
tp1138
a(S'stove.'
p1139
g20
tp1140
a(S'On'
p1141
g20
tp1142
a(S'the'
p1143
g17
tp1144
a(S'table'
p1145
g48
tp1146
a(g70
g17
tp1147
a(S'bell'
p1148
g48
tp1149
a(S'button'
p1150
g48
tp1151
a(S'and'
p1152
g34
tp1153
a(g70
g17
tp1154
a(S'telephone.'
p1155
g20
tp1156
a(S'Portraits'
p1157
g20
tp1158
a(S'of'
p1159
g14
tp1160
a(S'past'
p1161
g11
tp1162
a(S'Mayors'
p1163
g25
tp1164
a(g68
g68
tp1165
a(S'in'
p1166
g14
tp1167
a(S'robes'
p1168
g25
tp1169
a(S'and'
p1170
g34
tp1171
a(S'gold'
p1172
g48
tp1173
a(S'chains'
p1174
g25
tp1175
a(g68
g68
tp1176
a(S'adorn'
p1177
g48
tp1178
a(S'the'
p1179
g17
tp1180
a(S'walls.'
p1181
g20
tp1182
a(S'An'
p1183
g20
tp1184
a(S'elderly'
p1185
g246
tp1186
a(S'clerk'
p1187
g48
tp1188
a(S'with'
p1189
g14
tp1190
a(g70
g17
tp1191
a(S'short'
p1192
g11
tp1193
a(S'white'
p1194
g11
tp1195
a(S'beard'
p1196
g48
tp1197
a(S'and'
p1198
g34
tp1199
a(S'whiskers'
p1200
g25
tp1201
a(g68
g68
tp1202
a(S'and'
p1203
g34
tp1204
a(g70
g17
tp1205
a(S'very'
p1206
g246
tp1207
a(S'red'
p1208
g31
tp1209
a(S'nose'
p1210
g48
tp1211
a(g68
g68
tp1212
a(S'shuffles'
p1213
g25
tp1214
a(S'in'
p1215
g14
tp1216
a(g400
g400
tp1217
a(S'A'
p1218
g17
tp1219
a(S'hotel'
p1220
g48
tp1221
a(S'sitting'
p1222
g423
tp1223
a(S'room.'
p1224
g20
tp1225
a(g1218
g17
tp1226
a(S'table'
p1227
g11
tp1228
a(S'in'
p1229
g14
tp1230
a(S'the'
p1231
g17
tp1232
a(S'centre.'
p1233
g20
tp1234
a(S'On'
p1235
g20
tp1236
a(S'it'
p1237
g2
tp1238
a(g70
g17
tp1239
a(S'telephone.'
p1240
g20
tp1241
a(S'Two'
p1242
g20
tp1243
a(S'chairs'
p1244
g25
tp1245
a(S'at'
p1246
g14
tp1247
a(S'it'
p1248
g2
tp1249
a(g68
g68
tp1250
a(S'opposite'
p1251
g11
tp1252
a(S'one'
p1253
g8
tp1254
a(S'another.'
p1255
g20
tp1256
a(S'Behind'
p1257
g20
tp1258
a(S'it'
p1259
g2
tp1260
a(g68
g68
tp1261
a(S'the'
p1262
g17
tp1263
a(S'door.'
p1264
g20
tp1265
a(S'The'
p1266
g20
tp1267
a(S'fireplace'
p1268
g48
tp1269
a(S'has'
p1270
g5
tp1271
a(g70
g17
tp1272
a(S'mirror'
p1273
g48
tp1274
a(S'in'
p1275
g14
tp1276
a(S'the'
p1277
g17
tp1278
a(S'mantelpiece'
p1279
g48
tp1280
a(g400
g400
tp1281
a(g1218
g17
tp1282
a(S'spinster'
p1283
g48
tp1284
a(S'Princess'
p1285
g20
tp1286
a(g68
g68
tp1287
a(S'hatted'
p1288
g41
tp1289
a(S'and'
p1290
g34
tp1291
a(S'gloved'
p1292
g31
tp1293
a(g68
g68
tp1294
a(S'is'
p1295
g5
tp1296
a(S'ushered'
p1297
g31
tp1298
a(S'in'
p1299
g14
tp1300
a(S'by'
p1301
g14
tp1302
a(S'the'
p1303
g17
tp1304
a(S'hotel'
p1305
g48
tp1306
a(S'manager'
p1307
g48
tp1308
a(g68
g68
tp1309
a(S'spruce'
p1310
g48
tp1311
a(S'and'
p1312
g34
tp1313
a(S'artifically'
p1314
g246
tp1315
a(S'bland'
p1316
g28
tp1317
a(S'by'
p1318
g14
tp1319
a(S'professional'
p1320
g11
tp1321
a(S'habit'
p1322
g48
tp1323
a(g68
g68
tp1324
a(S'but'
p1325
g34
tp1326
a(S'treating'
p1327
g423
tp1328
a(S'his'
p1329
g113
tp1330
a(S'customer'
p1331
g48
tp1332
a(S'with'
p1333
g14
tp1334
a(g70
g17
tp1335
a(S'condescending'
p1336
g48
tp1337
a(S'affability'
p1338
g48
tp1339
a(S'which'
p1340
g108
tp1341
a(S'sails'
p1342
g25
tp1343
a(S'very'
p1344
g246
tp1345
a(S'close'
p1346
g11
tp1347
a(S'to'
p1348
g172
tp1349
a(S'the'
p1350
g17
tp1351
a(S'east'
p1352
g11
tp1353
a(S'wind'
p1354
g48
tp1355
a(S'of'
p1356
g14
tp1357
a(S'insolence'
p1358
g48
tp1359
a(g400
g400
tp1360
a(g1218
g17
tp1361
a(S'lady'
p1362
g48
tp1363
a(S'and'
p1364
g34
tp1365
a(S'gentleman'
p1366
g48
tp1367
a(S'are'
p1368
g28
tp1369
a(S'sitting'
p1370
g423
tp1371
a(S'together'
p1372
g246
tp1373
a(S'on'
p1374
g14
tp1375
a(g70
g17
tp1376
a(S'chesterfield'
p1377
g48
tp1378
a(S'in'
p1379
g14
tp1380
a(g70
g17
tp1381
a(S'retired'
p1382
g31
tp1383
a(S'corner'
p1384
g48
tp1385
a(S'of'
p1386
g14
tp1387
a(S'the'
p1388
g17
tp1389
a(S'lounge'
p1390
g48
tp1391
a(S'of'
p1392
g14
tp1393
a(g70
g17
tp1394
a(S'seaside'
p1395
g48
tp1396
a(S'hotel.'
p1397
g20
tp1398
a(S'It'
p1399
g20
tp1400
a(S'is'
p1401
g5
tp1402
a(g70
g17
tp1403
a(S'summer'
p1404
g48
tp1405
a(S'night'
p1406
g48
tp1407
a(g137
g137
tp1408
a(S'the'
p1409
g17
tp1410
a(S'French'
p1411
g11
tp1412
a(S'window'
p1413
g48
tp1414
a(S'behind'
p1415
g14
tp1416
a(S'them'
p1417
g2
tp1418
a(S'stands'
p1419
g5
tp1420
a(S'open.'
p1421
g20
tp1422
a(S'The'
p1423
g20
tp1424
a(S'terrace'
p1425
g48
tp1426
a(S'without'
p1427
g14
tp1428
a(S'overlooks'
p1429
g25
tp1430
a(g70
g17
tp1431
a(S'moonlit'
p1432
g48
tp1433
a(S'harbor.'
p1434
g20
tp1435
a(S'The'
p1436
g20
tp1437
a(S'lounge'
p1438
g48
tp1439
a(S'is'
p1440
g5
tp1441
a(S'dark.'
p1442
g20
tp1443
a(S'The'
p1444
g17
tp1445
a(S'chesterfield'
p1446
g48
tp1447
a(g68
g68
tp1448
a(S'upholstered'
p1449
g41
tp1450
a(S'in'
p1451
g14
tp1452
a(S'silver'
p1453
g48
tp1454
a(S'grey'
p1455
g48
tp1456
a(g68
g68
tp1457
a(S'and'
p1458
g34
tp1459
a(S'the'
p1460
g17
tp1461
a(S'two'
p1462
g8
tp1463
a(S'figures'
p1464
g25
tp1465
a(S'on'
p1466
g14
tp1467
a(S'it'
p1468
g2
tp1469
a(S'in'
p1470
g14
tp1471
a(S'evening'
p1472
g48
tp1473
a(S'dress'
p1474
g48
tp1475
a(g68
g68
tp1476
a(S'catch'
p1477
g48
tp1478
a(S'the'
p1479
g17
tp1480
a(S'light'
p1481
g48
tp1482
a(S'from'
p1483
g14
tp1484
a(S'an'
p1485
g17
tp1486
a(S'arc'
p1487
g48
tp1488
a(S'lamp'
p1489
g48
tp1490
a(S'somewhere'
p1491
g246
tp1492
a(g136
g137
tp1493
a(S'but'
p1494
g34
tp1495
a(S'the'
p1496
g17
tp1497
a(S'walls'
p1498
g25
tp1499
a(g68
g68
tp1500
a(S'covered'
p1501
g31
tp1502
a(S'with'
p1503
g14
tp1504
a(g70
g17
tp1505
a(S'dark'
p1506
g11
tp1507
a(S'green'
p1508
g11
tp1509
a(S'paper'
p1510
g48
tp1511
a(g68
g68
tp1512
a(S'are'
p1513
g28
tp1514
a(S'in'
p1515
g14
tp1516
a(S'gloom.'
p1517
g20
tp1518
a(S'There'
p1519
g482
tp1520
a(S'are'
p1521
g28
tp1522
a(S'two'
p1523
g8
tp1524
a(S'stray'
p1525
g11
tp1526
a(S'chairs'
p1527
g25
tp1528
a(g68
g68
tp1529
a(S'one'
p1530
g8
tp1531
a(S'on'
p1532
g14
tp1533
a(S'each'
p1534
g17
tp1535
a(S'side.'
p1536
g20
tp1537
a(S'On'
p1538
g20
tp1539
a(S'the'
p1540
g17
tp1541
a(S'gentleman'
p1542
g48
tp1543
a(S"'s"
p1544
g263
tp1545
a(S'right'
p1546
g48
tp1547
a(g68
g68
tp1548
a(S'behind'
p1549
g14
tp1550
a(S'him'
p1551
g2
tp1552
a(S'up'
p1553
g14
tp1554
a(S'near'
p1555
g14
tp1556
a(S'the'
p1557
g17
tp1558
a(S'window'
p1559
g48
tp1560
a(g68
g68
tp1561
a(S'is'
p1562
g5
tp1563
a(S'an'
p1564
g17
tp1565
a(S'unused'
p1566
g31
tp1567
a(S'fireplace.'
p1568
g20
tp1569
a(S'Opposite'
p1570
g20
tp1571
a(S'it'
p1572
g2
tp1573
a(S'on'
p1574
g14
tp1575
a(S'the'
p1576
g17
tp1577
a(S'lady'
p1578
g48
tp1579
a(S"'s"
p1580
g263
tp1581
a(S'left'
p1582
g48
tp1583
a(S'is'
p1584
g5
tp1585
a(g70
g17
tp1586
a(S'door.'
p1587
g20
tp1588
a(S'The'
p1589
g20
tp1590
a(S'gentleman'
p1591
g48
tp1592
a(S'is'
p1593
g5
tp1594
a(S'on'
p1595
g14
tp1596
a(S'the'
p1597
g17
tp1598
a(S'lady'
p1599
g48
tp1600
a(S"'s"
p1601
g263
tp1602
a(S'right'
p1603
g48
tp1604
a(g400
g400
tp1605
a(S'The'
p1606
g17
tp1607
a(S'lady'
p1608
g48
tp1609
a(S'is'
p1610
g5
tp1611
a(S'very'
p1612
g246
tp1613
a(S'attractive'
p1614
g11
tp1615
a(g68
g68
tp1616
a(S'with'
p1617
g14
tp1618
a(g70
g17
tp1619
a(S'musical'
p1620
g11
tp1621
a(S'voice'
p1622
g48
tp1623
a(S'and'
p1624
g34
tp1625
a(S'soft'
p1626
g11
tp1627
a(S'appealing'
p1628
g48
tp1629
a(S'manners.'
p1630
g20
tp1631
a(S'She'
p1632
g20
tp1633
a(S'is'
p1634
g5
tp1635
a(S'young'
p1636
g11
tp1637
a(g137
g137
tp1638
a(S'that'
p1639
g14
tp1640
a(S'is'
p1641
g5
tp1642
a(g68
g68
tp1643
a(S'one'
p1644
g8
tp1645
a(S'feels'
p1646
g25
tp1647
a(S'sure'
p1648
g11
tp1649
a(S'that'
p1650
g14
tp1651
a(S'she'
p1652
g2
tp1653
a(S'is'
p1654
g5
tp1655
a(S'under'
p1656
g14
tp1657
a(S'thirty-five'
p1658
g11
tp1659
a(S'and'
p1660
g34
tp1661
a(S'over'
p1662
g14
tp1663
a(S'twenty-four.'
p1664
g20
tp1665
a(S'The'
p1666
g20
tp1667
a(S'gentleman'
p1668
g48
tp1669
a(S'does'
p1670
g5
tp1671
a(S'not'
p1672
g246
tp1673
a(S'look'
p1674
g257
tp1675
a(S'much'
p1676
g11
tp1677
a(S'older.'
p1678
g20
tp1679
a(S'He'
p1680
g20
tp1681
a(S'is'
p1682
g5
tp1683
a(S'rather'
p1684
g246
tp1685
a(S'handsome'
p1686
g31
tp1687
a(g68
g68
tp1688
a(S'and'
p1689
g34
tp1690
a(S'has'
p1691
g5
tp1692
a(S'ventured'
p1693
g31
tp1694
a(S'as'
p1695
g14
tp1696
a(S'far'
p1697
g246
tp1698
a(S'in'
p1699
g14
tp1700
a(S'the'
p1701
g17
tp1702
a(S'direction'
p1703
g48
tp1704
a(S'of'
p1705
g14
tp1706
a(S'poetic'
p1707
g11
tp1708
a(S'dandyism'
p1709
g48
tp1710
a(S'in'
p1711
g14
tp1712
a(S'the'
p1713
g17
tp1714
a(S'arrangement'
p1715
g48
tp1716
a(S'of'
p1717
g14
tp1718
a(S'his'
p1719
g113
tp1720
a(S'hair'
p1721
g48
tp1722
a(S'as'
p1723
g14
tp1724
a(S'any'
p1725
g17
tp1726
a(S'man'
p1727
g48
tp1728
a(S'who'
p1729
g969
tp1730
a(S'is'
p1731
g5
tp1732
a(S'not'
p1733
g246
tp1734
a(g70
g17
tp1735
a(S'professional'
p1736
g11
tp1737
a(S'artist'
p1738
g48
tp1739
a(S'can'
p1740
S'MD'
p1741
tp1742
a(S'afford'
p1743
g257
tp1744
a(S'to'
p1745
g172
tp1746
a(S'in'
p1747
g14
tp1748
a(S'England.'
p1749
g20
tp1750
a(S'He'
p1751
g20
tp1752
a(S'is'
p1753
g5
tp1754
a(S'obviously'
p1755
g246
tp1756
a(S'very'
p1757
g246
tp1758
a(S'much'
p1759
g246
tp1760
a(S'in'
p1761
g14
tp1762
a(S'love'
p1763
g48
tp1764
a(S'with'
p1765
g14
tp1766
a(S'the'
p1767
g17
tp1768
a(S'lady'
p1769
g48
tp1770
a(g68
g68
tp1771
a(S'and'
p1772
g34
tp1773
a(S'is'
p1774
g5
tp1775
a(g68
g68
tp1776
a(S'in'
p1777
g14
tp1778
a(S'fact'
p1779
g48
tp1780
a(g68
g68
tp1781
a(S'yielding'
p1782
g423
tp1783
a(S'to'
p1784
g172
tp1785
a(S'an'
p1786
g17
tp1787
a(S'irresistible'
p1788
g11
tp1789
a(S'impulse'
p1790
g48
tp1791
a(S'to'
p1792
g172
tp1793
a(S'throw'
p1794
g257
tp1795
a(S'his'
p1796
g113
tp1797
a(S'arms'
p1798
g25
tp1799
a(S'around'
p1800
g14
tp1801
a(S'her'
p1802
g113
tp1803
a(g400
g400
tp1804
a(S'General'
p1805
g20
tp1806
a(S'Mitchener'
p1807
g20
tp1808
a(S'is'
p1809
g5
tp1810
a(S'at'
p1811
g14
tp1812
a(S'his'
p1813
g113
tp1814
a(S'writing'
p1815
g48
tp1816
a(S'table'
p1817
g48
tp1818
a(S'in'
p1819
g14
tp1820
a(S'the'
p1821
g17
tp1822
a(S'War'
p1823
g20
tp1824
a(S'Office'
p1825
g20
tp1826
a(g68
g68
tp1827
a(S'opening'
p1828
g423
tp1829
a(S'letters.'
p1830
g20
tp1831
a(S'On'
p1832
g20
tp1833
a(S'his'
p1834
g113
tp1835
a(S'left'
p1836
g48
tp1837
a(S'is'
p1838
g5
tp1839
a(S'the'
p1840
g17
tp1841
a(S'fireplace'
p1842
g48
tp1843
a(g68
g68
tp1844
a(S'with'
p1845
g14
tp1846
a(g70
g17
tp1847
a(S'fire'
p1848
g48
tp1849
a(S'burning.'
p1850
g20
tp1851
a(S'On'
p1852
g20
tp1853
a(S'his'
p1854
g113
tp1855
a(S'right'
p1856
g48
tp1857
a(g68
g68
tp1858
a(S'against'
p1859
g14
tp1860
a(S'the'
p1861
g17
tp1862
a(S'opposite'
p1863
g48
tp1864
a(S'wall'
p1865
g48
tp1866
a(S'is'
p1867
g5
tp1868
a(g70
g17
tp1869
a(S'standing'
p1870
g48
tp1871
a(S'desk'
p1872
g48
tp1873
a(S'with'
p1874
g14
tp1875
a(S'an'
p1876
g17
tp1877
a(S'office'
p1878
g48
tp1879
a(S'stool.'
p1880
g20
tp1881
a(S'The'
p1882
g20
tp1883
a(S'door'
p1884
g48
tp1885
a(S'is'
p1886
g5
tp1887
a(S'in'
p1888
g14
tp1889
a(S'the'
p1890
g17
tp1891
a(S'wall'
p1892
g48
tp1893
a(S'behind'
p1894
g14
tp1895
a(S'him'
p1896
g2
tp1897
a(g68
g68
tp1898
a(S'half'
p1899
g17
tp1900
a(S'way'
p1901
g48
tp1902
a(S'between'
p1903
g14
tp1904
a(S'the'
p1905
g17
tp1906
a(S'table'
p1907
g48
tp1908
a(S'and'
p1909
g34
tp1910
a(S'the'
p1911
g17
tp1912
a(S'desk.'
p1913
g20
tp1914
a(S'The'
p1915
g20
tp1916
a(S'table'
p1917
g48
tp1918
a(S'is'
p1919
g5
tp1920
a(S'not'
p1921
g246
tp1922
a(S'quite'
p1923
g246
tp1924
a(S'in'
p1925
g14
tp1926
a(S'the'
p1927
g17
tp1928
a(S'middle'
p1929
g48
tp1930
a(S'of'
p1931
g14
tp1932
a(S'the'
p1933
g17
tp1934
a(S'room'
p1935
g48
tp1936
a(g137
g137
tp1937
a(S'it'
p1938
g2
tp1939
a(S'is'
p1940
g5
tp1941
a(S'nearer'
p1942
S'JJR'
p1943
tp1944
a(S'to'
p1945
g172
tp1946
a(S'the'
p1947
g17
tp1948
a(S'hearthrug'
p1949
g48
tp1950
a(S'than'
p1951
g14
tp1952
a(S'to'
p1953
g172
tp1954
a(S'the'
p1955
g17
tp1956
a(S'desk.'
p1957
g20
tp1958
a(S'There'
p1959
g20
tp1960
a(S'is'
p1961
g5
tp1962
a(g70
g17
tp1963
a(S'chair'
p1964
g48
tp1965
a(S'at'
p1966
g14
tp1967
a(S'each'
p1968
g17
tp1969
a(S'end'
p1970
g48
tp1971
a(S'of'
p1972
g14
tp1973
a(S'it'
p1974
g2
tp1975
a(S'for'
p1976
g14
tp1977
a(S'persons'
p1978
g25
tp1979
a(S'having'
p1980
g423
tp1981
a(S'business'
p1982
g48
tp1983
a(S'with'
p1984
g14
tp1985
a(S'the'
p1986
g17
tp1987
a(S'general.'
p1988
g20
tp1989
a(S'There'
p1990
g20
tp1991
a(S'is'
p1992
g5
tp1993
a(g70
g17
tp1994
a(S'telephone'
p1995
g48
tp1996
a(S'on'
p1997
g14
tp1998
a(S'the'
p1999
g17
tp2000
a(S'table.'
p2001
g20
tp2002
a(S'Long'
p2003
g20
tp2004
a(S'silence'
p2005
g48
tp2006
a(g400
g400
tp2007
a.